ARM GAS  /tmp/ccTXGKqk.s 			page 1


   1              		.cpu cortex-m3
   2              		.arch armv7-m
   3              		.fpu softvfp
   4              		.eabi_attribute 20, 1
   5              		.eabi_attribute 21, 1
   6              		.eabi_attribute 23, 3
   7              		.eabi_attribute 24, 1
   8              		.eabi_attribute 25, 1
   9              		.eabi_attribute 26, 1
  10              		.eabi_attribute 30, 1
  11              		.eabi_attribute 34, 1
  12              		.eabi_attribute 18, 4
  13              		.file	"ssd1306_tests.c"
  14              		.text
  15              	.Ltext0:
  16              		.cfi_sections	.debug_frame
  17              		.section	.text.ssd1306_TestBorder,"ax",%progbits
  18              		.align	1
  19              		.global	ssd1306_TestBorder
  20              		.syntax unified
  21              		.thumb
  22              		.thumb_func
  24              	ssd1306_TestBorder:
  25              	.LFB68:
  26              		.file 1 "Core/Src/ssd1306_tests.c"
   1:Core/Src/ssd1306_tests.c **** #include <string.h>
   2:Core/Src/ssd1306_tests.c **** #include <stdio.h>
   3:Core/Src/ssd1306_tests.c **** #include "ssd1306.h"
   4:Core/Src/ssd1306_tests.c **** #include "ssd1306_tests.h"
   5:Core/Src/ssd1306_tests.c **** #include "ssd1306_fonts.h"
   6:Core/Src/ssd1306_tests.c **** 
   7:Core/Src/ssd1306_tests.c **** //------------------------------------------------------------------------------
   8:Core/Src/ssd1306_tests.c **** // Table generated by LCD Assistant
   9:Core/Src/ssd1306_tests.c **** // http://en.radzio.dxp.pl/bitmap_converter/
  10:Core/Src/ssd1306_tests.c **** //------------------------------------------------------------------------------
  11:Core/Src/ssd1306_tests.c **** const unsigned char garfield_128x64 [] = {
  12:Core/Src/ssd1306_tests.c **** 0x00, 0x00, 0x00, 0x00, 0x00, 0x00, 0x00, 0x00, 0x00, 0x00, 0x00, 0x00, 0x00, 0x00, 0x00, 0x00,
  13:Core/Src/ssd1306_tests.c **** 0x00, 0x00, 0x00, 0x00, 0x00, 0x07, 0xFF, 0x00, 0x00, 0x00, 0x00, 0x00, 0x00, 0x00, 0x00, 0x00,
  14:Core/Src/ssd1306_tests.c **** 0x00, 0x00, 0x00, 0x00, 0x00, 0x1F, 0xFF, 0xF8, 0x7F, 0xE0, 0x00, 0x00, 0x00, 0x00, 0x00, 0x00,
  15:Core/Src/ssd1306_tests.c **** 0x00, 0x00, 0x00, 0x00, 0x00, 0x3F, 0xFF, 0xCF, 0xFF, 0xFE, 0x00, 0x00, 0x00, 0x00, 0x00, 0x00,
  16:Core/Src/ssd1306_tests.c **** 0x00, 0x00, 0x00, 0x00, 0x00, 0x3F, 0xFB, 0xE3, 0xFF, 0xF3, 0x80, 0x00, 0x00, 0x00, 0x00, 0x00,
  17:Core/Src/ssd1306_tests.c **** 0x00, 0x00, 0x00, 0x00, 0x00, 0x3F, 0xC0, 0xF3, 0xFF, 0xF8, 0xE0, 0x00, 0x00, 0x00, 0x00, 0x00,
  18:Core/Src/ssd1306_tests.c **** 0x00, 0x00, 0x00, 0x00, 0x00, 0x1F, 0x00, 0x1F, 0xD9, 0xFC, 0x38, 0x00, 0x00, 0x00, 0x00, 0x00,
  19:Core/Src/ssd1306_tests.c **** 0x00, 0x00, 0x00, 0x00, 0x00, 0x0D, 0x00, 0x0F, 0x00, 0x1E, 0x0C, 0x00, 0x00, 0x00, 0x00, 0x00,
  20:Core/Src/ssd1306_tests.c **** 0x00, 0x00, 0x00, 0x00, 0x0C, 0x0C, 0x0E, 0x1F, 0xF8, 0x03, 0x04, 0x00, 0x00, 0x00, 0x00, 0x00,
  21:Core/Src/ssd1306_tests.c **** 0x00, 0x00, 0x00, 0x00, 0x03, 0x87, 0xF0, 0x07, 0x00, 0x01, 0x86, 0x00, 0x00, 0x00, 0x00, 0x00,
  22:Core/Src/ssd1306_tests.c **** 0x00, 0x00, 0x00, 0x00, 0x18, 0x3B, 0x80, 0x18, 0x00, 0x30, 0xC3, 0x00, 0x00, 0x00, 0x00, 0x00,
  23:Core/Src/ssd1306_tests.c **** 0x00, 0x00, 0x00, 0x00, 0x00, 0xFE, 0x00, 0x60, 0x00, 0x18, 0xC3, 0x01, 0xC0, 0x00, 0x00, 0x00,
  24:Core/Src/ssd1306_tests.c **** 0x00, 0x00, 0x00, 0x00, 0x3F, 0xFC, 0x01, 0x80, 0x00, 0x0F, 0xC3, 0x8F, 0xC0, 0x00, 0x00, 0x00,
  25:Core/Src/ssd1306_tests.c **** 0x00, 0x00, 0x00, 0x00, 0x07, 0xF0, 0x03, 0x00, 0x00, 0x0C, 0x07, 0xF0, 0x00, 0x00, 0x00, 0x00,
  26:Core/Src/ssd1306_tests.c **** 0x00, 0x00, 0x00, 0x00, 0x0F, 0xE0, 0x0C, 0x00, 0x00, 0x0C, 0x07, 0xFF, 0xF8, 0x00, 0x00, 0x00,
  27:Core/Src/ssd1306_tests.c **** 0x00, 0x00, 0x00, 0x00, 0x38, 0xC0, 0x18, 0x00, 0x00, 0x08, 0x0F, 0xFF, 0xF0, 0x00, 0x00, 0x00,
  28:Core/Src/ssd1306_tests.c **** 0x00, 0x00, 0x00, 0x00, 0x71, 0x80, 0x30, 0x00, 0x00, 0x08, 0x0F, 0xFC, 0xFC, 0x00, 0x00, 0x00,
  29:Core/Src/ssd1306_tests.c **** 0x00, 0x00, 0x00, 0x00, 0xF7, 0x00, 0x60, 0x00, 0x00, 0x18, 0x3F, 0xFE, 0x00, 0x00, 0x00, 0x00,
  30:Core/Src/ssd1306_tests.c **** 0x00, 0x00, 0x00, 0x01, 0xFF, 0x00, 0x60, 0x00, 0x00, 0x18, 0x7F, 0xFE, 0x00, 0x00, 0x00, 0x00,
  31:Core/Src/ssd1306_tests.c **** 0x00, 0x00, 0x00, 0x03, 0xFF, 0x00, 0xC0, 0x00, 0x00, 0x30, 0xFF, 0x1F, 0x00, 0x00, 0x00, 0x00,
  32:Core/Src/ssd1306_tests.c **** 0x00, 0x00, 0x00, 0x03, 0x83, 0xE0, 0xC0, 0x00, 0x00, 0x60, 0x00, 0x03, 0x00, 0x00, 0x00, 0x00,
ARM GAS  /tmp/ccTXGKqk.s 			page 2


  33:Core/Src/ssd1306_tests.c **** 0x00, 0x00, 0x00, 0x07, 0x03, 0x1F, 0xFF, 0xFF, 0xFF, 0xC0, 0x00, 0x03, 0x80, 0x00, 0x00, 0x00,
  34:Core/Src/ssd1306_tests.c **** 0x00, 0x00, 0x00, 0x0E, 0x01, 0x00, 0xE7, 0xC0, 0x03, 0x80, 0x00, 0x0F, 0x80, 0x00, 0x00, 0x00,
  35:Core/Src/ssd1306_tests.c **** 0x00, 0x00, 0x00, 0x0F, 0x01, 0x80, 0xE0, 0x00, 0x06, 0x00, 0x00, 0xFF, 0x80, 0x00, 0x00, 0x00,
  36:Core/Src/ssd1306_tests.c **** 0x00, 0x00, 0x00, 0x0F, 0x83, 0x7F, 0xF0, 0x00, 0x38, 0x00, 0x26, 0xFF, 0x80, 0x00, 0x00, 0x00,
  37:Core/Src/ssd1306_tests.c **** 0x00, 0x00, 0x00, 0x0F, 0xDC, 0x18, 0x1F, 0x87, 0xE0, 0x00, 0x26, 0xEF, 0x80, 0x00, 0x00, 0x00,
  38:Core/Src/ssd1306_tests.c **** 0x00, 0x00, 0x00, 0x0F, 0xB8, 0x0E, 0x18, 0x00, 0x30, 0x00, 0x04, 0xCF, 0x80, 0x00, 0x00, 0x00,
  39:Core/Src/ssd1306_tests.c **** 0x00, 0x00, 0x00, 0x0F, 0x30, 0x0F, 0xC0, 0x00, 0x18, 0x00, 0x00, 0x8F, 0x80, 0x00, 0x00, 0x00,
  40:Core/Src/ssd1306_tests.c **** 0x00, 0x00, 0x00, 0x07, 0x30, 0x38, 0x70, 0x00, 0x18, 0x00, 0x00, 0x0F, 0x00, 0x00, 0x00, 0x00,
  41:Core/Src/ssd1306_tests.c **** 0x00, 0x00, 0x00, 0x07, 0x18, 0x00, 0x1F, 0x00, 0x18, 0x3B, 0x80, 0x0E, 0x00, 0x00, 0x00, 0x00,
  42:Core/Src/ssd1306_tests.c **** 0x00, 0x00, 0x00, 0x03, 0x8E, 0x00, 0x03, 0x80, 0x70, 0x1F, 0xF8, 0x1C, 0x00, 0x00, 0x00, 0x00,
  43:Core/Src/ssd1306_tests.c **** 0x00, 0x00, 0x00, 0x01, 0xFF, 0x80, 0x00, 0x03, 0xE0, 0x1F, 0xFF, 0xF8, 0x00, 0x00, 0x00, 0x00,
  44:Core/Src/ssd1306_tests.c **** 0x00, 0x00, 0x00, 0x00, 0x7F, 0x86, 0x00, 0x3F, 0x1F, 0x07, 0xFF, 0xE0, 0x00, 0x00, 0x00, 0x00,
  45:Core/Src/ssd1306_tests.c **** 0x00, 0x00, 0x00, 0x00, 0x0F, 0xC3, 0x00, 0x00, 0x3F, 0x01, 0xFF, 0x80, 0x00, 0x00, 0x00, 0x00,
  46:Core/Src/ssd1306_tests.c **** 0x00, 0x00, 0x00, 0x00, 0x01, 0xFF, 0x80, 0x00, 0x3F, 0xC7, 0xFC, 0x00, 0x00, 0x00, 0x00, 0x00,
  47:Core/Src/ssd1306_tests.c **** 0x00, 0x00, 0x00, 0x00, 0x00, 0x73, 0xE0, 0x07, 0xFF, 0xFF, 0xF8, 0x00, 0x00, 0x00, 0x00, 0x00,
  48:Core/Src/ssd1306_tests.c **** 0x00, 0x00, 0x00, 0x00, 0x00, 0xC0, 0x00, 0x07, 0xC0, 0x3F, 0xF8, 0x00, 0x00, 0x00, 0x00, 0x00,
  49:Core/Src/ssd1306_tests.c **** 0x00, 0x00, 0x00, 0x00, 0x03, 0x00, 0x00, 0x00, 0x00, 0x3F, 0xF8, 0x00, 0x00, 0x00, 0x00, 0x00,
  50:Core/Src/ssd1306_tests.c **** 0x00, 0x00, 0x00, 0x00, 0x0E, 0x00, 0x00, 0x00, 0x00, 0x3E, 0xF8, 0x00, 0x00, 0x00, 0x00, 0x00,
  51:Core/Src/ssd1306_tests.c **** 0x00, 0x00, 0x00, 0x00, 0x18, 0x00, 0x00, 0x00, 0x00, 0xA4, 0xF0, 0x00, 0x00, 0x00, 0x00, 0x00,
  52:Core/Src/ssd1306_tests.c **** 0x00, 0x00, 0x00, 0x00, 0x70, 0x00, 0x00, 0x16, 0x01, 0xC0, 0x78, 0x00, 0x00, 0x00, 0x00, 0x00,
  53:Core/Src/ssd1306_tests.c **** 0x00, 0x00, 0x00, 0x00, 0xE0, 0x00, 0x00, 0x1E, 0x01, 0xC0, 0x3E, 0x00, 0x00, 0x00, 0x00, 0x00,
  54:Core/Src/ssd1306_tests.c **** 0x00, 0x00, 0x00, 0x01, 0xC0, 0x00, 0x00, 0x0C, 0x01, 0x80, 0x3F, 0x00, 0x00, 0x00, 0x00, 0x00,
  55:Core/Src/ssd1306_tests.c **** 0x00, 0x00, 0x00, 0x03, 0x80, 0x00, 0x00, 0x04, 0x01, 0xF3, 0xFF, 0xC0, 0x00, 0x00, 0x00, 0x00,
  56:Core/Src/ssd1306_tests.c **** 0x00, 0x00, 0x00, 0x07, 0x00, 0x00, 0x00, 0x0C, 0x01, 0xEF, 0xF7, 0xE0, 0x00, 0x00, 0x00, 0x00,
  57:Core/Src/ssd1306_tests.c **** 0x00, 0x00, 0x00, 0x0E, 0x00, 0x00, 0x00, 0x18, 0x00, 0x07, 0xF0, 0x60, 0x00, 0x00, 0x00, 0x00,
  58:Core/Src/ssd1306_tests.c **** 0x00, 0x00, 0x00, 0x0C, 0x00, 0x00, 0x00, 0x18, 0x00, 0x07, 0x80, 0x70, 0x00, 0x00, 0x00, 0x00,
  59:Core/Src/ssd1306_tests.c **** 0x00, 0x00, 0x00, 0x18, 0x00, 0x00, 0x00, 0x30, 0x00, 0x06, 0x04, 0xF0, 0x00, 0x00, 0x00, 0x00,
  60:Core/Src/ssd1306_tests.c **** 0x00, 0x00, 0x00, 0x38, 0x00, 0x00, 0x00, 0x60, 0x00, 0x0C, 0x1C, 0xF0, 0x00, 0x00, 0x00, 0x00,
  61:Core/Src/ssd1306_tests.c **** 0x00, 0x00, 0x00, 0x30, 0x00, 0x00, 0x00, 0xC0, 0x00, 0x1F, 0xFF, 0xF0, 0x00, 0x00, 0x00, 0x00,
  62:Core/Src/ssd1306_tests.c **** 0x00, 0x00, 0x00, 0x30, 0x00, 0x00, 0x01, 0x80, 0x00, 0x01, 0xFD, 0xF0, 0x00, 0x00, 0x00, 0x00,
  63:Core/Src/ssd1306_tests.c **** 0x00, 0x00, 0x00, 0x30, 0x00, 0x00, 0x03, 0x00, 0x00, 0x00, 0xFD, 0xF0, 0x00, 0x00, 0x00, 0x00,
  64:Core/Src/ssd1306_tests.c **** 0x00, 0x00, 0x00, 0x30, 0x00, 0x00, 0x07, 0x00, 0x00, 0x01, 0xC1, 0xE0, 0x00, 0x00, 0x00, 0x00,
  65:Core/Src/ssd1306_tests.c **** 0x00, 0x00, 0x00, 0x18, 0x00, 0x00, 0x07, 0x00, 0x00, 0x03, 0x81, 0xE0, 0x00, 0x00, 0x00, 0x00,
  66:Core/Src/ssd1306_tests.c **** 0x00, 0x00, 0x00, 0x0C, 0x00, 0x00, 0x07, 0x00, 0x00, 0x07, 0xFF, 0xC0, 0x00, 0x00, 0x00, 0x00,
  67:Core/Src/ssd1306_tests.c **** 0x00, 0x00, 0x00, 0x06, 0x00, 0x00, 0x03, 0xC0, 0x00, 0x39, 0xFF, 0x80, 0x00, 0x00, 0x00, 0x00,
  68:Core/Src/ssd1306_tests.c **** 0x00, 0x00, 0x00, 0x03, 0x80, 0x00, 0x01, 0xF0, 0x01, 0xE3, 0xFF, 0x00, 0x00, 0x00, 0x00, 0x00,
  69:Core/Src/ssd1306_tests.c **** 0x00, 0x00, 0x00, 0x00, 0xE0, 0x00, 0x00, 0x1F, 0x03, 0x8D, 0xFE, 0x00, 0x00, 0x00, 0x00, 0x00,
  70:Core/Src/ssd1306_tests.c **** 0x00, 0x00, 0x00, 0x00, 0x1E, 0x00, 0x00, 0x03, 0xFC, 0x3D, 0xFE, 0x00, 0x00, 0x00, 0x00, 0x00,
  71:Core/Src/ssd1306_tests.c **** 0x00, 0x00, 0x00, 0x00, 0x01, 0xF8, 0x00, 0x03, 0xC0, 0x3F, 0xFE, 0x00, 0x00, 0x00, 0x00, 0x00,
  72:Core/Src/ssd1306_tests.c **** 0x00, 0x00, 0x00, 0x00, 0x00, 0x07, 0xFF, 0xFF, 0xC0, 0x3F, 0xFE, 0x00, 0x00, 0x00, 0x00, 0x00,
  73:Core/Src/ssd1306_tests.c **** 0x00, 0x00, 0x00, 0x00, 0x00, 0x03, 0xFF, 0xF1, 0xC0, 0x3F, 0xFE, 0x00, 0x00, 0x00, 0x00, 0x00,
  74:Core/Src/ssd1306_tests.c **** 0x00, 0x00, 0x00, 0x00, 0x00, 0x03, 0xFF, 0xE0, 0xC0, 0x3F, 0xFE, 0x00, 0x00, 0x00, 0x00, 0x00,
  75:Core/Src/ssd1306_tests.c **** 0x00, 0x00, 0x00, 0x00, 0x00, 0x03, 0xFF, 0xE0, 0xC0, 0x3F, 0x9E, 0x00, 0x00, 0x00, 0x00, 0x00
  76:Core/Src/ssd1306_tests.c **** };
  77:Core/Src/ssd1306_tests.c **** 
  78:Core/Src/ssd1306_tests.c **** const unsigned char github_logo_64x64[] = {
  79:Core/Src/ssd1306_tests.c **** 0x00, 0x00, 0x00, 0x1F, 0xF8, 0x00, 0x00, 0x00, 0x00, 0x00, 0x03, 0xFF, 0xFF, 0x80, 0x00, 0x00,
  80:Core/Src/ssd1306_tests.c **** 0x00, 0x00, 0x0F, 0xFF, 0xFF, 0xF0, 0x00, 0x00, 0x00, 0x00, 0x3F, 0xFF, 0xFF, 0xFC, 0x00, 0x00,
  81:Core/Src/ssd1306_tests.c **** 0x00, 0x00, 0xFF, 0xFF, 0xFF, 0xFF, 0x00, 0x00, 0x00, 0x03, 0xFF, 0xFF, 0xFF, 0xFF, 0xC0, 0x00,
  82:Core/Src/ssd1306_tests.c **** 0x00, 0x07, 0xFF, 0xFF, 0xFF, 0xFF, 0xE0, 0x00, 0x00, 0x0F, 0xFF, 0xFF, 0xFF, 0xFF, 0xF0, 0x00,
  83:Core/Src/ssd1306_tests.c **** 0x00, 0x3F, 0xFF, 0xFF, 0xFF, 0xFF, 0xFC, 0x00, 0x00, 0x7F, 0xFF, 0xFF, 0xFF, 0xFF, 0xFE, 0x00,
  84:Core/Src/ssd1306_tests.c **** 0x00, 0xFF, 0xFF, 0xFF, 0xFF, 0xFF, 0xFF, 0x00, 0x00, 0xFF, 0xFF, 0xFF, 0xFF, 0xFF, 0xFF, 0x00,
  85:Core/Src/ssd1306_tests.c **** 0x01, 0xFF, 0xFF, 0xFF, 0xFF, 0xFF, 0xFF, 0x80, 0x03, 0xFE, 0x3F, 0xFF, 0xFF, 0xFC, 0x7F, 0xC0,
  86:Core/Src/ssd1306_tests.c **** 0x07, 0xFE, 0x07, 0xFF, 0xFF, 0xE0, 0x7F, 0xE0, 0x07, 0xFE, 0x01, 0xF8, 0x1F, 0xC0, 0x3F, 0xE0,
  87:Core/Src/ssd1306_tests.c **** 0x0F, 0xFC, 0x00, 0x00, 0x00, 0x00, 0x3F, 0xF0, 0x0F, 0xFC, 0x00, 0x00, 0x00, 0x00, 0x3F, 0xF0,
  88:Core/Src/ssd1306_tests.c **** 0x1F, 0xFC, 0x00, 0x00, 0x00, 0x00, 0x3F, 0xF8, 0x1F, 0xFC, 0x00, 0x00, 0x00, 0x00, 0x3F, 0xF8,
  89:Core/Src/ssd1306_tests.c **** 0x3F, 0xFE, 0x00, 0x00, 0x00, 0x00, 0x3F, 0xFC, 0x3F, 0xFE, 0x00, 0x00, 0x00, 0x00, 0x7F, 0xFC,
ARM GAS  /tmp/ccTXGKqk.s 			page 3


  90:Core/Src/ssd1306_tests.c **** 0x7F, 0xFC, 0x00, 0x00, 0x00, 0x00, 0x3F, 0xFC, 0x7F, 0xFC, 0x00, 0x00, 0x00, 0x00, 0x1F, 0xFE,
  91:Core/Src/ssd1306_tests.c **** 0x7F, 0xF8, 0x00, 0x00, 0x00, 0x00, 0x1F, 0xFE, 0x7F, 0xF8, 0x00, 0x00, 0x00, 0x00, 0x0F, 0xFE,
  92:Core/Src/ssd1306_tests.c **** 0x7F, 0xF0, 0x00, 0x00, 0x00, 0x00, 0x0F, 0xFE, 0xFF, 0xF0, 0x00, 0x00, 0x00, 0x00, 0x0F, 0xFF,
  93:Core/Src/ssd1306_tests.c **** 0xFF, 0xF0, 0x00, 0x00, 0x00, 0x00, 0x0F, 0xFF, 0xFF, 0xF0, 0x00, 0x00, 0x00, 0x00, 0x07, 0xFF,
  94:Core/Src/ssd1306_tests.c **** 0xFF, 0xF0, 0x00, 0x00, 0x00, 0x00, 0x07, 0xFF, 0xFF, 0xF0, 0x00, 0x00, 0x00, 0x00, 0x07, 0xFF,
  95:Core/Src/ssd1306_tests.c **** 0xFF, 0xF0, 0x00, 0x00, 0x00, 0x00, 0x0F, 0xFF, 0xFF, 0xF0, 0x00, 0x00, 0x00, 0x00, 0x0F, 0xFF,
  96:Core/Src/ssd1306_tests.c **** 0xFF, 0xF0, 0x00, 0x00, 0x00, 0x00, 0x0F, 0xFF, 0xFF, 0xF0, 0x00, 0x00, 0x00, 0x00, 0x0F, 0xFF,
  97:Core/Src/ssd1306_tests.c **** 0xFF, 0xF0, 0x00, 0x00, 0x00, 0x00, 0x0F, 0xFF, 0x7F, 0xF8, 0x00, 0x00, 0x00, 0x00, 0x1F, 0xFE,
  98:Core/Src/ssd1306_tests.c **** 0x7F, 0xF8, 0x00, 0x00, 0x00, 0x00, 0x1F, 0xFE, 0x7F, 0xFC, 0x00, 0x00, 0x00, 0x00, 0x3F, 0xFE,
  99:Core/Src/ssd1306_tests.c **** 0x7F, 0xFC, 0x00, 0x00, 0x00, 0x00, 0x3F, 0xFE, 0x7F, 0xFE, 0x00, 0x00, 0x00, 0x00, 0x7F, 0xFC,
 100:Core/Src/ssd1306_tests.c **** 0x3F, 0xFF, 0x00, 0x00, 0x00, 0x00, 0xFF, 0xFC, 0x3F, 0xFF, 0xC0, 0x00, 0x00, 0x01, 0xFF, 0xFC,
 101:Core/Src/ssd1306_tests.c **** 0x1F, 0x9F, 0xE0, 0x00, 0x00, 0x07, 0xFF, 0xF8, 0x1F, 0x87, 0xFC, 0x00, 0x00, 0x3F, 0xFF, 0xF8,
 102:Core/Src/ssd1306_tests.c **** 0x0F, 0xC3, 0xFF, 0xC0, 0x01, 0xFF, 0xFF, 0xF0, 0x0F, 0xE1, 0xFF, 0x80, 0x01, 0xFF, 0xFF, 0xF0,
 103:Core/Src/ssd1306_tests.c **** 0x07, 0xF1, 0xFF, 0x80, 0x00, 0xFF, 0xFF, 0xE0, 0x07, 0xF0, 0xFF, 0x00, 0x00, 0xFF, 0xFF, 0xE0,
 104:Core/Src/ssd1306_tests.c **** 0x03, 0xF8, 0x3F, 0x00, 0x00, 0xFF, 0xFF, 0xC0, 0x01, 0xF8, 0x00, 0x00, 0x00, 0xFF, 0xFF, 0x80,
 105:Core/Src/ssd1306_tests.c **** 0x00, 0xFC, 0x00, 0x00, 0x00, 0xFF, 0xFF, 0x00, 0x00, 0xFE, 0x00, 0x00, 0x00, 0xFF, 0xFF, 0x00,
 106:Core/Src/ssd1306_tests.c **** 0x00, 0x7F, 0x00, 0x00, 0x00, 0xFF, 0xFE, 0x00, 0x00, 0x3F, 0xFF, 0x00, 0x00, 0xFF, 0xFC, 0x00,
 107:Core/Src/ssd1306_tests.c **** 0x00, 0x0F, 0xFF, 0x00, 0x00, 0xFF, 0xF0, 0x00, 0x00, 0x07, 0xFF, 0x00, 0x00, 0xFF, 0xE0, 0x00,
 108:Core/Src/ssd1306_tests.c **** 0x00, 0x03, 0xFF, 0x00, 0x00, 0xFF, 0xC0, 0x00, 0x00, 0x00, 0xFF, 0x00, 0x00, 0xFF, 0x00, 0x00,
 109:Core/Src/ssd1306_tests.c **** 0x00, 0x00, 0x3F, 0x00, 0x00, 0xFC, 0x00, 0x00, 0x00, 0x00, 0x0F, 0x00, 0x00, 0xF0, 0x00, 0x00,
 110:Core/Src/ssd1306_tests.c **** 0x00, 0x00, 0x00, 0x00, 0x00, 0x00, 0x00, 0x00, 0x00, 0x00, 0x00, 0x00, 0x00, 0x00, 0x00, 0x00
 111:Core/Src/ssd1306_tests.c **** };
 112:Core/Src/ssd1306_tests.c **** 
 113:Core/Src/ssd1306_tests.c **** void ssd1306_TestBorder() {
  27              		.loc 1 113 27 view -0
  28              		.cfi_startproc
  29              		@ args = 0, pretend = 0, frame = 0
  30              		@ frame_needed = 0, uses_anonymous_args = 0
  31 0000 70B5     		push	{r4, r5, r6, lr}
  32              	.LCFI0:
  33              		.cfi_def_cfa_offset 16
  34              		.cfi_offset 4, -16
  35              		.cfi_offset 5, -12
  36              		.cfi_offset 6, -8
  37              		.cfi_offset 14, -4
 114:Core/Src/ssd1306_tests.c ****     ssd1306_Fill(Black);
  38              		.loc 1 114 5 view .LVU1
  39 0002 0020     		movs	r0, #0
  40 0004 FFF7FEFF 		bl	ssd1306_Fill
  41              	.LVL0:
 115:Core/Src/ssd1306_tests.c ****    
 116:Core/Src/ssd1306_tests.c ****     uint32_t start = HAL_GetTick();
  42              		.loc 1 116 5 view .LVU2
  43              		.loc 1 116 22 is_stmt 0 view .LVU3
  44 0008 FFF7FEFF 		bl	HAL_GetTick
  45              	.LVL1:
  46 000c 0646     		mov	r6, r0
  47              	.LVL2:
 117:Core/Src/ssd1306_tests.c ****     uint32_t end = start;
  48              		.loc 1 117 5 is_stmt 1 view .LVU4
 118:Core/Src/ssd1306_tests.c ****     uint8_t x = 0;
  49              		.loc 1 118 5 view .LVU5
 119:Core/Src/ssd1306_tests.c ****     uint8_t y = 0;
  50              		.loc 1 119 5 view .LVU6
  51              		.loc 1 119 13 is_stmt 0 view .LVU7
  52 000e 0024     		movs	r4, #0
 118:Core/Src/ssd1306_tests.c ****     uint8_t x = 0;
ARM GAS  /tmp/ccTXGKqk.s 			page 4


  53              		.loc 1 118 13 view .LVU8
  54 0010 2546     		mov	r5, r4
  55 0012 15E0     		b	.L6
  56              	.LVL3:
  57              	.L2:
 120:Core/Src/ssd1306_tests.c ****     do {
 121:Core/Src/ssd1306_tests.c ****         ssd1306_DrawPixel(x, y, Black);
 122:Core/Src/ssd1306_tests.c **** 
 123:Core/Src/ssd1306_tests.c ****         if((y == 0) && (x < 127))
 124:Core/Src/ssd1306_tests.c ****             x++;
 125:Core/Src/ssd1306_tests.c ****         else if((x == 127) && (y < (SSD1306_HEIGHT-1)))
  58              		.loc 1 125 14 is_stmt 1 view .LVU9
  59              		.loc 1 125 16 is_stmt 0 view .LVU10
  60 0014 7F2D     		cmp	r5, #127
  61 0016 1FD0     		beq	.L8
  62              	.L4:
 126:Core/Src/ssd1306_tests.c ****             y++;
 127:Core/Src/ssd1306_tests.c ****         else if((y == (SSD1306_HEIGHT-1)) && (x > 0)) 
  63              		.loc 1 127 14 is_stmt 1 view .LVU11
  64              		.loc 1 127 16 is_stmt 0 view .LVU12
  65 0018 3F2C     		cmp	r4, #63
  66 001a 22D0     		beq	.L9
  67              	.L5:
 128:Core/Src/ssd1306_tests.c ****             x--;
 129:Core/Src/ssd1306_tests.c ****         else
 130:Core/Src/ssd1306_tests.c ****             y--;
  68              		.loc 1 130 13 is_stmt 1 view .LVU13
  69              		.loc 1 130 14 is_stmt 0 view .LVU14
  70 001c 013C     		subs	r4, r4, #1
  71              	.LVL4:
  72              		.loc 1 130 14 view .LVU15
  73 001e E4B2     		uxtb	r4, r4
  74              	.LVL5:
  75              	.L3:
 131:Core/Src/ssd1306_tests.c **** 
 132:Core/Src/ssd1306_tests.c ****         ssd1306_DrawPixel(x, y, White);
  76              		.loc 1 132 9 is_stmt 1 view .LVU16
  77 0020 0122     		movs	r2, #1
  78 0022 2146     		mov	r1, r4
  79 0024 2846     		mov	r0, r5
  80 0026 FFF7FEFF 		bl	ssd1306_DrawPixel
  81              	.LVL6:
 133:Core/Src/ssd1306_tests.c ****         ssd1306_UpdateScreen();
  82              		.loc 1 133 9 view .LVU17
  83 002a FFF7FEFF 		bl	ssd1306_UpdateScreen
  84              	.LVL7:
 134:Core/Src/ssd1306_tests.c ****     
 135:Core/Src/ssd1306_tests.c ****         HAL_Delay(5);
  85              		.loc 1 135 9 view .LVU18
  86 002e 0520     		movs	r0, #5
  87 0030 FFF7FEFF 		bl	HAL_Delay
  88              	.LVL8:
 136:Core/Src/ssd1306_tests.c ****         end = HAL_GetTick();
  89              		.loc 1 136 9 view .LVU19
  90              		.loc 1 136 15 is_stmt 0 view .LVU20
  91 0034 FFF7FEFF 		bl	HAL_GetTick
  92              	.LVL9:
ARM GAS  /tmp/ccTXGKqk.s 			page 5


 137:Core/Src/ssd1306_tests.c ****     } while((end - start) < 8000);
  93              		.loc 1 137 12 is_stmt 1 view .LVU21
  94              		.loc 1 137 18 is_stmt 0 view .LVU22
  95 0038 801B     		subs	r0, r0, r6
  96              	.LVL10:
  97              		.loc 1 137 5 view .LVU23
  98 003a B0F5FA5F 		cmp	r0, #8000
  99 003e 15D2     		bcs	.L10
 100              	.LVL11:
 101              	.L6:
 120:Core/Src/ssd1306_tests.c ****         ssd1306_DrawPixel(x, y, Black);
 102              		.loc 1 120 5 is_stmt 1 view .LVU24
 121:Core/Src/ssd1306_tests.c **** 
 103              		.loc 1 121 9 view .LVU25
 104 0040 0022     		movs	r2, #0
 105 0042 2146     		mov	r1, r4
 106 0044 2846     		mov	r0, r5
 107 0046 FFF7FEFF 		bl	ssd1306_DrawPixel
 108              	.LVL12:
 123:Core/Src/ssd1306_tests.c ****             x++;
 109              		.loc 1 123 9 view .LVU26
 123:Core/Src/ssd1306_tests.c ****             x++;
 110              		.loc 1 123 11 is_stmt 0 view .LVU27
 111 004a 002C     		cmp	r4, #0
 112 004c E2D1     		bne	.L2
 123:Core/Src/ssd1306_tests.c ****             x++;
 113              		.loc 1 123 21 discriminator 1 view .LVU28
 114 004e 7E2D     		cmp	r5, #126
 115 0050 E0D8     		bhi	.L2
 124:Core/Src/ssd1306_tests.c ****         else if((x == 127) && (y < (SSD1306_HEIGHT-1)))
 116              		.loc 1 124 13 is_stmt 1 view .LVU29
 124:Core/Src/ssd1306_tests.c ****         else if((x == 127) && (y < (SSD1306_HEIGHT-1)))
 117              		.loc 1 124 14 is_stmt 0 view .LVU30
 118 0052 0135     		adds	r5, r5, #1
 119              	.LVL13:
 124:Core/Src/ssd1306_tests.c ****         else if((x == 127) && (y < (SSD1306_HEIGHT-1)))
 120              		.loc 1 124 14 view .LVU31
 121 0054 EDB2     		uxtb	r5, r5
 122              	.LVL14:
 124:Core/Src/ssd1306_tests.c ****         else if((x == 127) && (y < (SSD1306_HEIGHT-1)))
 123              		.loc 1 124 14 view .LVU32
 124 0056 E3E7     		b	.L3
 125              	.L8:
 125:Core/Src/ssd1306_tests.c ****             y++;
 126              		.loc 1 125 28 discriminator 1 view .LVU33
 127 0058 3E2C     		cmp	r4, #62
 128 005a DDD8     		bhi	.L4
 126:Core/Src/ssd1306_tests.c ****         else if((y == (SSD1306_HEIGHT-1)) && (x > 0)) 
 129              		.loc 1 126 13 is_stmt 1 view .LVU34
 126:Core/Src/ssd1306_tests.c ****         else if((y == (SSD1306_HEIGHT-1)) && (x > 0)) 
 130              		.loc 1 126 14 is_stmt 0 view .LVU35
 131 005c 0134     		adds	r4, r4, #1
 132              	.LVL15:
 126:Core/Src/ssd1306_tests.c ****         else if((y == (SSD1306_HEIGHT-1)) && (x > 0)) 
 133              		.loc 1 126 14 view .LVU36
 134 005e E4B2     		uxtb	r4, r4
 135              	.LVL16:
ARM GAS  /tmp/ccTXGKqk.s 			page 6


 126:Core/Src/ssd1306_tests.c ****         else if((y == (SSD1306_HEIGHT-1)) && (x > 0)) 
 136              		.loc 1 126 14 view .LVU37
 137 0060 DEE7     		b	.L3
 138              	.L9:
 127:Core/Src/ssd1306_tests.c ****             x--;
 139              		.loc 1 127 43 discriminator 1 view .LVU38
 140 0062 002D     		cmp	r5, #0
 141 0064 DAD0     		beq	.L5
 128:Core/Src/ssd1306_tests.c ****         else
 142              		.loc 1 128 13 is_stmt 1 view .LVU39
 128:Core/Src/ssd1306_tests.c ****         else
 143              		.loc 1 128 14 is_stmt 0 view .LVU40
 144 0066 013D     		subs	r5, r5, #1
 145              	.LVL17:
 128:Core/Src/ssd1306_tests.c ****         else
 146              		.loc 1 128 14 view .LVU41
 147 0068 EDB2     		uxtb	r5, r5
 148              	.LVL18:
 128:Core/Src/ssd1306_tests.c ****         else
 149              		.loc 1 128 14 view .LVU42
 150 006a D9E7     		b	.L3
 151              	.L10:
 138:Core/Src/ssd1306_tests.c ****    
 139:Core/Src/ssd1306_tests.c ****     HAL_Delay(1000);
 152              		.loc 1 139 5 is_stmt 1 view .LVU43
 153 006c 4FF47A70 		mov	r0, #1000
 154 0070 FFF7FEFF 		bl	HAL_Delay
 155              	.LVL19:
 140:Core/Src/ssd1306_tests.c **** }
 156              		.loc 1 140 1 is_stmt 0 view .LVU44
 157 0074 70BD     		pop	{r4, r5, r6, pc}
 158              		.loc 1 140 1 view .LVU45
 159              		.cfi_endproc
 160              	.LFE68:
 162              		.section	.rodata.ssd1306_TestFonts.str1.4,"aMS",%progbits,1
 163              		.align	2
 164              	.LC1:
 165 0000 466F6E74 		.ascii	"Font 16x26\000"
 165      20313678 
 165      323600
 166 000b 00       		.align	2
 167              	.LC2:
 168 000c 466F6E74 		.ascii	"Font 11x18\000"
 168      20313178 
 168      313800
 169 0017 00       		.align	2
 170              	.LC3:
 171 0018 466F6E74 		.ascii	"Font 7x10\000"
 171      20377831 
 171      3000
 172 0022 0000     		.align	2
 173              	.LC4:
 174 0024 466F6E74 		.ascii	"Font 6x8\000"
 174      20367838 
 174      00
 175              		.section	.text.ssd1306_TestFonts,"ax",%progbits
 176              		.align	1
ARM GAS  /tmp/ccTXGKqk.s 			page 7


 177              		.global	ssd1306_TestFonts
 178              		.syntax unified
 179              		.thumb
 180              		.thumb_func
 182              	ssd1306_TestFonts:
 183              	.LFB69:
 141:Core/Src/ssd1306_tests.c **** 
 142:Core/Src/ssd1306_tests.c **** void ssd1306_TestFonts() {
 184              		.loc 1 142 26 is_stmt 1 view -0
 185              		.cfi_startproc
 186              		@ args = 0, pretend = 0, frame = 0
 187              		@ frame_needed = 0, uses_anonymous_args = 0
 188 0000 08B5     		push	{r3, lr}
 189              	.LCFI1:
 190              		.cfi_def_cfa_offset 8
 191              		.cfi_offset 3, -8
 192              		.cfi_offset 14, -4
 143:Core/Src/ssd1306_tests.c ****     uint8_t y = 0;
 193              		.loc 1 143 5 view .LVU47
 194              	.LVL20:
 144:Core/Src/ssd1306_tests.c ****     ssd1306_Fill(Black);
 195              		.loc 1 144 5 view .LVU48
 196 0002 0020     		movs	r0, #0
 197 0004 FFF7FEFF 		bl	ssd1306_Fill
 198              	.LVL21:
 145:Core/Src/ssd1306_tests.c **** 
 146:Core/Src/ssd1306_tests.c ****     #ifdef SSD1306_INCLUDE_FONT_16x26
 147:Core/Src/ssd1306_tests.c ****     ssd1306_SetCursor(2, y);
 199              		.loc 1 147 5 view .LVU49
 200 0008 0021     		movs	r1, #0
 201 000a 0220     		movs	r0, #2
 202 000c FFF7FEFF 		bl	ssd1306_SetCursor
 203              	.LVL22:
 148:Core/Src/ssd1306_tests.c ****     ssd1306_WriteString("Font 16x26", Font_16x26, White);
 204              		.loc 1 148 5 view .LVU50
 205 0010 134A     		ldr	r2, .L13
 206 0012 0123     		movs	r3, #1
 207 0014 06CA     		ldm	r2, {r1, r2}
 208 0016 1348     		ldr	r0, .L13+4
 209 0018 FFF7FEFF 		bl	ssd1306_WriteString
 210              	.LVL23:
 149:Core/Src/ssd1306_tests.c ****     y += 26;
 211              		.loc 1 149 5 view .LVU51
 150:Core/Src/ssd1306_tests.c ****     #endif
 151:Core/Src/ssd1306_tests.c **** 
 152:Core/Src/ssd1306_tests.c ****     #ifdef SSD1306_INCLUDE_FONT_11x18
 153:Core/Src/ssd1306_tests.c ****     ssd1306_SetCursor(2, y);
 212              		.loc 1 153 5 view .LVU52
 213 001c 1A21     		movs	r1, #26
 214 001e 0220     		movs	r0, #2
 215 0020 FFF7FEFF 		bl	ssd1306_SetCursor
 216              	.LVL24:
 154:Core/Src/ssd1306_tests.c ****     ssd1306_WriteString("Font 11x18", Font_11x18, White);
 217              		.loc 1 154 5 view .LVU53
 218 0024 104A     		ldr	r2, .L13+8
 219 0026 0123     		movs	r3, #1
 220 0028 06CA     		ldm	r2, {r1, r2}
ARM GAS  /tmp/ccTXGKqk.s 			page 8


 221 002a 1048     		ldr	r0, .L13+12
 222 002c FFF7FEFF 		bl	ssd1306_WriteString
 223              	.LVL25:
 155:Core/Src/ssd1306_tests.c ****     y += 18;
 224              		.loc 1 155 5 view .LVU54
 156:Core/Src/ssd1306_tests.c ****     #endif
 157:Core/Src/ssd1306_tests.c **** 
 158:Core/Src/ssd1306_tests.c ****     #ifdef SSD1306_INCLUDE_FONT_7x10
 159:Core/Src/ssd1306_tests.c ****     ssd1306_SetCursor(2, y);
 225              		.loc 1 159 5 view .LVU55
 226 0030 2C21     		movs	r1, #44
 227 0032 0220     		movs	r0, #2
 228 0034 FFF7FEFF 		bl	ssd1306_SetCursor
 229              	.LVL26:
 160:Core/Src/ssd1306_tests.c ****     ssd1306_WriteString("Font 7x10", Font_7x10, White);
 230              		.loc 1 160 5 view .LVU56
 231 0038 0D4A     		ldr	r2, .L13+16
 232 003a 0123     		movs	r3, #1
 233 003c 06CA     		ldm	r2, {r1, r2}
 234 003e 0D48     		ldr	r0, .L13+20
 235 0040 FFF7FEFF 		bl	ssd1306_WriteString
 236              	.LVL27:
 161:Core/Src/ssd1306_tests.c ****     y += 10;
 237              		.loc 1 161 5 view .LVU57
 162:Core/Src/ssd1306_tests.c ****     #endif
 163:Core/Src/ssd1306_tests.c **** 
 164:Core/Src/ssd1306_tests.c ****     #ifdef SSD1306_INCLUDE_FONT_6x8
 165:Core/Src/ssd1306_tests.c ****     ssd1306_SetCursor(2, y);
 238              		.loc 1 165 5 view .LVU58
 239 0044 3621     		movs	r1, #54
 240 0046 0220     		movs	r0, #2
 241 0048 FFF7FEFF 		bl	ssd1306_SetCursor
 242              	.LVL28:
 166:Core/Src/ssd1306_tests.c ****     ssd1306_WriteString("Font 6x8", Font_6x8, White);
 243              		.loc 1 166 5 view .LVU59
 244 004c 0A4A     		ldr	r2, .L13+24
 245 004e 0123     		movs	r3, #1
 246 0050 06CA     		ldm	r2, {r1, r2}
 247 0052 0A48     		ldr	r0, .L13+28
 248 0054 FFF7FEFF 		bl	ssd1306_WriteString
 249              	.LVL29:
 167:Core/Src/ssd1306_tests.c ****     #endif
 168:Core/Src/ssd1306_tests.c **** 
 169:Core/Src/ssd1306_tests.c ****     ssd1306_UpdateScreen();
 250              		.loc 1 169 5 view .LVU60
 251 0058 FFF7FEFF 		bl	ssd1306_UpdateScreen
 252              	.LVL30:
 170:Core/Src/ssd1306_tests.c **** }
 253              		.loc 1 170 1 is_stmt 0 view .LVU61
 254 005c 08BD     		pop	{r3, pc}
 255              	.L14:
 256 005e 00BF     		.align	2
 257              	.L13:
 258 0060 00000000 		.word	Font_16x26
 259 0064 00000000 		.word	.LC1
 260 0068 00000000 		.word	Font_11x18
 261 006c 0C000000 		.word	.LC2
ARM GAS  /tmp/ccTXGKqk.s 			page 9


 262 0070 00000000 		.word	Font_7x10
 263 0074 18000000 		.word	.LC3
 264 0078 00000000 		.word	Font_6x8
 265 007c 24000000 		.word	.LC4
 266              		.cfi_endproc
 267              	.LFE69:
 269              		.section	.rodata.ssd1306_TestFPS.str1.4,"aMS",%progbits,1
 270              		.align	2
 271              	.LC6:
 272 0000 54657374 		.ascii	"Testing...\000"
 272      696E672E 
 272      2E2E00
 273 000b 00       		.align	2
 274              	.LC7:
 275 000c 30313233 		.ascii	"0123456789A\000"
 275      34353637 
 275      38394100 
 276              		.global	__aeabi_i2f
 277              		.global	__aeabi_f2d
 278              		.global	__aeabi_ui2d
 279              		.global	__aeabi_ddiv
 280              		.global	__aeabi_d2iz
 281              		.align	2
 282              	.LC8:
 283 0018 7E256420 		.ascii	"~%d FPS\000"
 283      46505300 
 284              		.align	2
 285              	.LC5:
 286 0020 41424344 		.ascii	"ABCDEFGHIJK\000"
 286      45464748 
 286      494A4B00 
 287              		.section	.text.ssd1306_TestFPS,"ax",%progbits
 288              		.align	1
 289              		.global	ssd1306_TestFPS
 290              		.syntax unified
 291              		.thumb
 292              		.thumb_func
 294              	ssd1306_TestFPS:
 295              	.LFB70:
 171:Core/Src/ssd1306_tests.c **** 
 172:Core/Src/ssd1306_tests.c **** void ssd1306_TestFPS() {
 296              		.loc 1 172 24 is_stmt 1 view -0
 297              		.cfi_startproc
 298              		@ args = 0, pretend = 0, frame = 80
 299              		@ frame_needed = 0, uses_anonymous_args = 0
 300 0000 F0B5     		push	{r4, r5, r6, r7, lr}
 301              	.LCFI2:
 302              		.cfi_def_cfa_offset 20
 303              		.cfi_offset 4, -20
 304              		.cfi_offset 5, -16
 305              		.cfi_offset 6, -12
 306              		.cfi_offset 7, -8
 307              		.cfi_offset 14, -4
 308 0002 95B0     		sub	sp, sp, #84
 309              	.LCFI3:
 310              		.cfi_def_cfa_offset 104
 173:Core/Src/ssd1306_tests.c ****     ssd1306_Fill(White);
ARM GAS  /tmp/ccTXGKqk.s 			page 10


 311              		.loc 1 173 5 view .LVU63
 312 0004 0120     		movs	r0, #1
 313 0006 FFF7FEFF 		bl	ssd1306_Fill
 314              	.LVL31:
 174:Core/Src/ssd1306_tests.c ****    
 175:Core/Src/ssd1306_tests.c ****     uint32_t start = HAL_GetTick();
 315              		.loc 1 175 5 view .LVU64
 316              		.loc 1 175 22 is_stmt 0 view .LVU65
 317 000a FFF7FEFF 		bl	HAL_GetTick
 318              	.LVL32:
 319 000e 0646     		mov	r6, r0
 320              	.LVL33:
 176:Core/Src/ssd1306_tests.c ****     uint32_t end = start;
 321              		.loc 1 176 5 is_stmt 1 view .LVU66
 177:Core/Src/ssd1306_tests.c ****     int fps = 0;
 322              		.loc 1 177 5 view .LVU67
 178:Core/Src/ssd1306_tests.c ****     char message[] = "ABCDEFGHIJK";
 323              		.loc 1 178 5 view .LVU68
 324              		.loc 1 178 10 is_stmt 0 view .LVU69
 325 0010 354B     		ldr	r3, .L18
 326 0012 93E80700 		ldm	r3, {r0, r1, r2}
 327              	.LVL34:
 328              		.loc 1 178 10 view .LVU70
 329 0016 14AB     		add	r3, sp, #80
 330 0018 03E90700 		stmdb	r3, {r0, r1, r2}
 179:Core/Src/ssd1306_tests.c ****    
 180:Core/Src/ssd1306_tests.c ****     ssd1306_SetCursor(2,0);
 331              		.loc 1 180 5 is_stmt 1 view .LVU71
 332 001c 0021     		movs	r1, #0
 333 001e 0220     		movs	r0, #2
 334 0020 FFF7FEFF 		bl	ssd1306_SetCursor
 335              	.LVL35:
 181:Core/Src/ssd1306_tests.c ****     ssd1306_WriteString("Testing...", Font_11x18, Black);
 336              		.loc 1 181 5 view .LVU72
 337 0024 314C     		ldr	r4, .L18+4
 338 0026 0023     		movs	r3, #0
 339 0028 94E80600 		ldm	r4, {r1, r2}
 340 002c 3048     		ldr	r0, .L18+8
 341 002e FFF7FEFF 		bl	ssd1306_WriteString
 342              	.LVL36:
 182:Core/Src/ssd1306_tests.c ****     ssd1306_SetCursor(2, 18*2);
 343              		.loc 1 182 5 view .LVU73
 344 0032 2421     		movs	r1, #36
 345 0034 0220     		movs	r0, #2
 346 0036 FFF7FEFF 		bl	ssd1306_SetCursor
 347              	.LVL37:
 183:Core/Src/ssd1306_tests.c ****     ssd1306_WriteString("0123456789A", Font_11x18, Black);
 348              		.loc 1 183 5 view .LVU74
 349 003a 0023     		movs	r3, #0
 350 003c 94E80600 		ldm	r4, {r1, r2}
 351 0040 2C48     		ldr	r0, .L18+12
 352 0042 FFF7FEFF 		bl	ssd1306_WriteString
 353              	.LVL38:
 177:Core/Src/ssd1306_tests.c ****     char message[] = "ABCDEFGHIJK";
 354              		.loc 1 177 9 is_stmt 0 view .LVU75
 355 0046 0025     		movs	r5, #0
 356              	.LVL39:
ARM GAS  /tmp/ccTXGKqk.s 			page 11


 357              	.L16:
 184:Core/Src/ssd1306_tests.c ****    
 185:Core/Src/ssd1306_tests.c ****     do {
 358              		.loc 1 185 5 is_stmt 1 discriminator 1 view .LVU76
 359              	.LBB2:
 186:Core/Src/ssd1306_tests.c ****         ssd1306_SetCursor(2, 18);
 360              		.loc 1 186 9 discriminator 1 view .LVU77
 361 0048 1221     		movs	r1, #18
 362 004a 0220     		movs	r0, #2
 363 004c FFF7FEFF 		bl	ssd1306_SetCursor
 364              	.LVL40:
 187:Core/Src/ssd1306_tests.c ****         ssd1306_WriteString(message, Font_11x18, Black);
 365              		.loc 1 187 9 discriminator 1 view .LVU78
 366 0050 264A     		ldr	r2, .L18+4
 367 0052 0023     		movs	r3, #0
 368 0054 06CA     		ldm	r2, {r1, r2}
 369 0056 11A8     		add	r0, sp, #68
 370 0058 FFF7FEFF 		bl	ssd1306_WriteString
 371              	.LVL41:
 188:Core/Src/ssd1306_tests.c ****         ssd1306_UpdateScreen();
 372              		.loc 1 188 9 discriminator 1 view .LVU79
 373 005c FFF7FEFF 		bl	ssd1306_UpdateScreen
 374              	.LVL42:
 189:Core/Src/ssd1306_tests.c ****        
 190:Core/Src/ssd1306_tests.c ****         char ch = message[0];
 375              		.loc 1 190 9 discriminator 1 view .LVU80
 376              		.loc 1 190 14 is_stmt 0 discriminator 1 view .LVU81
 377 0060 9DF84440 		ldrb	r4, [sp, #68]	@ zero_extendqisi2
 378              	.LVL43:
 191:Core/Src/ssd1306_tests.c ****         memmove(message, message+1, sizeof(message)-2);
 379              		.loc 1 191 9 is_stmt 1 discriminator 1 view .LVU82
 380 0064 0A22     		movs	r2, #10
 381 0066 0DF14501 		add	r1, sp, #69
 382 006a 11A8     		add	r0, sp, #68
 383 006c FFF7FEFF 		bl	memmove
 384              	.LVL44:
 192:Core/Src/ssd1306_tests.c ****         message[sizeof(message)-2] = ch;
 385              		.loc 1 192 9 discriminator 1 view .LVU83
 386              		.loc 1 192 36 is_stmt 0 discriminator 1 view .LVU84
 387 0070 8DF84E40 		strb	r4, [sp, #78]
 193:Core/Src/ssd1306_tests.c **** 
 194:Core/Src/ssd1306_tests.c ****         fps++;
 388              		.loc 1 194 9 is_stmt 1 discriminator 1 view .LVU85
 389              		.loc 1 194 12 is_stmt 0 discriminator 1 view .LVU86
 390 0074 0135     		adds	r5, r5, #1
 391              	.LVL45:
 195:Core/Src/ssd1306_tests.c ****         end = HAL_GetTick();
 392              		.loc 1 195 9 is_stmt 1 discriminator 1 view .LVU87
 393              		.loc 1 195 15 is_stmt 0 discriminator 1 view .LVU88
 394 0076 FFF7FEFF 		bl	HAL_GetTick
 395              	.LVL46:
 396              		.loc 1 195 15 discriminator 1 view .LVU89
 397              	.LBE2:
 196:Core/Src/ssd1306_tests.c ****     } while((end - start) < 5000);
 398              		.loc 1 196 12 is_stmt 1 discriminator 1 view .LVU90
 399              		.loc 1 196 18 is_stmt 0 discriminator 1 view .LVU91
 400 007a 841B     		subs	r4, r0, r6
ARM GAS  /tmp/ccTXGKqk.s 			page 12


 401              	.LVL47:
 402              		.loc 1 196 5 discriminator 1 view .LVU92
 403 007c 41F28733 		movw	r3, #4999
 404 0080 9C42     		cmp	r4, r3
 405 0082 E1D9     		bls	.L16
 197:Core/Src/ssd1306_tests.c ****    
 198:Core/Src/ssd1306_tests.c ****     HAL_Delay(5000);
 406              		.loc 1 198 5 is_stmt 1 view .LVU93
 407 0084 41F28830 		movw	r0, #5000
 408              	.LVL48:
 409              		.loc 1 198 5 is_stmt 0 view .LVU94
 410 0088 FFF7FEFF 		bl	HAL_Delay
 411              	.LVL49:
 199:Core/Src/ssd1306_tests.c **** 
 200:Core/Src/ssd1306_tests.c ****     char buff[64];
 412              		.loc 1 200 5 is_stmt 1 view .LVU95
 201:Core/Src/ssd1306_tests.c ****     fps = (float)fps / ((end - start) / 1000.0);
 413              		.loc 1 201 5 view .LVU96
 414              		.loc 1 201 11 is_stmt 0 view .LVU97
 415 008c 2846     		mov	r0, r5
 416 008e FFF7FEFF 		bl	__aeabi_i2f
 417              	.LVL50:
 418 0092 FFF7FEFF 		bl	__aeabi_f2d
 419              	.LVL51:
 420 0096 0646     		mov	r6, r0
 421              	.LVL52:
 422              		.loc 1 201 11 view .LVU98
 423 0098 0F46     		mov	r7, r1
 424              		.loc 1 201 39 view .LVU99
 425 009a 2046     		mov	r0, r4
 426 009c FFF7FEFF 		bl	__aeabi_ui2d
 427              	.LVL53:
 428 00a0 0022     		movs	r2, #0
 429 00a2 154B     		ldr	r3, .L18+16
 430 00a4 FFF7FEFF 		bl	__aeabi_ddiv
 431              	.LVL54:
 432 00a8 0246     		mov	r2, r0
 433 00aa 0B46     		mov	r3, r1
 434              		.loc 1 201 22 view .LVU100
 435 00ac 3046     		mov	r0, r6
 436 00ae 3946     		mov	r1, r7
 437 00b0 FFF7FEFF 		bl	__aeabi_ddiv
 438              	.LVL55:
 439              		.loc 1 201 9 view .LVU101
 440 00b4 FFF7FEFF 		bl	__aeabi_d2iz
 441              	.LVL56:
 442 00b8 0346     		mov	r3, r0
 443              	.LVL57:
 202:Core/Src/ssd1306_tests.c ****     snprintf(buff, sizeof(buff), "~%d FPS", fps);
 444              		.loc 1 202 5 is_stmt 1 view .LVU102
 445 00ba 104A     		ldr	r2, .L18+20
 446 00bc 4021     		movs	r1, #64
 447 00be 01A8     		add	r0, sp, #4
 448              	.LVL58:
 449              		.loc 1 202 5 is_stmt 0 view .LVU103
 450 00c0 FFF7FEFF 		bl	snprintf
 451              	.LVL59:
ARM GAS  /tmp/ccTXGKqk.s 			page 13


 203:Core/Src/ssd1306_tests.c ****    
 204:Core/Src/ssd1306_tests.c ****     ssd1306_Fill(White);
 452              		.loc 1 204 5 is_stmt 1 view .LVU104
 453 00c4 0120     		movs	r0, #1
 454 00c6 FFF7FEFF 		bl	ssd1306_Fill
 455              	.LVL60:
 205:Core/Src/ssd1306_tests.c ****     ssd1306_SetCursor(2, 2);
 456              		.loc 1 205 5 view .LVU105
 457 00ca 0221     		movs	r1, #2
 458 00cc 0846     		mov	r0, r1
 459 00ce FFF7FEFF 		bl	ssd1306_SetCursor
 460              	.LVL61:
 206:Core/Src/ssd1306_tests.c ****     ssd1306_WriteString(buff, Font_11x18, Black);
 461              		.loc 1 206 5 view .LVU106
 462 00d2 064A     		ldr	r2, .L18+4
 463 00d4 0023     		movs	r3, #0
 464 00d6 06CA     		ldm	r2, {r1, r2}
 465 00d8 01A8     		add	r0, sp, #4
 466 00da FFF7FEFF 		bl	ssd1306_WriteString
 467              	.LVL62:
 207:Core/Src/ssd1306_tests.c ****     ssd1306_UpdateScreen();
 468              		.loc 1 207 5 view .LVU107
 469 00de FFF7FEFF 		bl	ssd1306_UpdateScreen
 470              	.LVL63:
 208:Core/Src/ssd1306_tests.c **** }
 471              		.loc 1 208 1 is_stmt 0 view .LVU108
 472 00e2 15B0     		add	sp, sp, #84
 473              	.LCFI4:
 474              		.cfi_def_cfa_offset 20
 475              		@ sp needed
 476 00e4 F0BD     		pop	{r4, r5, r6, r7, pc}
 477              	.L19:
 478 00e6 00BF     		.align	2
 479              	.L18:
 480 00e8 20000000 		.word	.LC5
 481 00ec 00000000 		.word	Font_11x18
 482 00f0 00000000 		.word	.LC6
 483 00f4 0C000000 		.word	.LC7
 484 00f8 00408F40 		.word	1083129856
 485 00fc 18000000 		.word	.LC8
 486              		.cfi_endproc
 487              	.LFE70:
 489              		.section	.text.ssd1306_TestLine,"ax",%progbits
 490              		.align	1
 491              		.global	ssd1306_TestLine
 492              		.syntax unified
 493              		.thumb
 494              		.thumb_func
 496              	ssd1306_TestLine:
 497              	.LFB71:
 209:Core/Src/ssd1306_tests.c **** 
 210:Core/Src/ssd1306_tests.c **** void ssd1306_TestLine() {
 498              		.loc 1 210 25 is_stmt 1 view -0
 499              		.cfi_startproc
 500              		@ args = 0, pretend = 0, frame = 0
 501              		@ frame_needed = 0, uses_anonymous_args = 0
 502 0000 10B5     		push	{r4, lr}
ARM GAS  /tmp/ccTXGKqk.s 			page 14


 503              	.LCFI5:
 504              		.cfi_def_cfa_offset 8
 505              		.cfi_offset 4, -8
 506              		.cfi_offset 14, -4
 507 0002 82B0     		sub	sp, sp, #8
 508              	.LCFI6:
 509              		.cfi_def_cfa_offset 16
 211:Core/Src/ssd1306_tests.c **** 
 212:Core/Src/ssd1306_tests.c ****   ssd1306_Line(1,1,SSD1306_WIDTH - 1,SSD1306_HEIGHT - 1,White);
 510              		.loc 1 212 3 view .LVU110
 511 0004 0124     		movs	r4, #1
 512 0006 0094     		str	r4, [sp]
 513 0008 3F23     		movs	r3, #63
 514 000a 7F22     		movs	r2, #127
 515 000c 2146     		mov	r1, r4
 516 000e 2046     		mov	r0, r4
 517 0010 FFF7FEFF 		bl	ssd1306_Line
 518              	.LVL64:
 213:Core/Src/ssd1306_tests.c ****   ssd1306_Line(SSD1306_WIDTH - 1,1,1,SSD1306_HEIGHT - 1,White);
 519              		.loc 1 213 3 view .LVU111
 520 0014 0094     		str	r4, [sp]
 521 0016 3F23     		movs	r3, #63
 522 0018 2246     		mov	r2, r4
 523 001a 2146     		mov	r1, r4
 524 001c 7F20     		movs	r0, #127
 525 001e FFF7FEFF 		bl	ssd1306_Line
 526              	.LVL65:
 214:Core/Src/ssd1306_tests.c ****   ssd1306_UpdateScreen();
 527              		.loc 1 214 3 view .LVU112
 528 0022 FFF7FEFF 		bl	ssd1306_UpdateScreen
 529              	.LVL66:
 215:Core/Src/ssd1306_tests.c ****   return;
 530              		.loc 1 215 3 view .LVU113
 216:Core/Src/ssd1306_tests.c **** }
 531              		.loc 1 216 1 is_stmt 0 view .LVU114
 532 0026 02B0     		add	sp, sp, #8
 533              	.LCFI7:
 534              		.cfi_def_cfa_offset 8
 535              		@ sp needed
 536 0028 10BD     		pop	{r4, pc}
 537              		.cfi_endproc
 538              	.LFE71:
 540              		.section	.text.ssd1306_TestRectangle,"ax",%progbits
 541              		.align	1
 542              		.global	ssd1306_TestRectangle
 543              		.syntax unified
 544              		.thumb
 545              		.thumb_func
 547              	ssd1306_TestRectangle:
 548              	.LFB72:
 217:Core/Src/ssd1306_tests.c **** 
 218:Core/Src/ssd1306_tests.c **** void ssd1306_TestRectangle() {
 549              		.loc 1 218 30 is_stmt 1 view -0
 550              		.cfi_startproc
 551              		@ args = 0, pretend = 0, frame = 0
 552              		@ frame_needed = 0, uses_anonymous_args = 0
 553 0000 10B5     		push	{r4, lr}
ARM GAS  /tmp/ccTXGKqk.s 			page 15


 554              	.LCFI8:
 555              		.cfi_def_cfa_offset 8
 556              		.cfi_offset 4, -8
 557              		.cfi_offset 14, -4
 558 0002 82B0     		sub	sp, sp, #8
 559              	.LCFI9:
 560              		.cfi_def_cfa_offset 16
 219:Core/Src/ssd1306_tests.c ****   uint32_t delta;
 561              		.loc 1 219 3 view .LVU116
 220:Core/Src/ssd1306_tests.c **** 
 221:Core/Src/ssd1306_tests.c ****   for(delta = 0; delta < 5; delta ++) {
 562              		.loc 1 221 3 view .LVU117
 563              	.LVL67:
 564              		.loc 1 221 13 is_stmt 0 view .LVU118
 565 0004 0024     		movs	r4, #0
 566              		.loc 1 221 3 view .LVU119
 567 0006 10E0     		b	.L23
 568              	.LVL68:
 569              	.L24:
 222:Core/Src/ssd1306_tests.c ****     ssd1306_DrawRectangle(1 + (5*delta),1 + (5*delta) ,SSD1306_WIDTH-1 - (5*delta),SSD1306_HEIGHT-1
 570              		.loc 1 222 5 is_stmt 1 discriminator 3 view .LVU120
 571 0008 04EB8402 		add	r2, r4, r4, lsl #2
 572 000c D2B2     		uxtb	r2, r2
 573 000e 501C     		adds	r0, r2, #1
 574 0010 C0B2     		uxtb	r0, r0
 575 0012 C2F13F03 		rsb	r3, r2, #63
 576 0016 C2F17F02 		rsb	r2, r2, #127
 577 001a 0121     		movs	r1, #1
 578 001c 0091     		str	r1, [sp]
 579 001e DBB2     		uxtb	r3, r3
 580 0020 D2B2     		uxtb	r2, r2
 581 0022 0146     		mov	r1, r0
 582 0024 FFF7FEFF 		bl	ssd1306_DrawRectangle
 583              	.LVL69:
 221:Core/Src/ssd1306_tests.c ****     ssd1306_DrawRectangle(1 + (5*delta),1 + (5*delta) ,SSD1306_WIDTH-1 - (5*delta),SSD1306_HEIGHT-1
 584              		.loc 1 221 29 discriminator 3 view .LVU121
 221:Core/Src/ssd1306_tests.c ****     ssd1306_DrawRectangle(1 + (5*delta),1 + (5*delta) ,SSD1306_WIDTH-1 - (5*delta),SSD1306_HEIGHT-1
 585              		.loc 1 221 35 is_stmt 0 discriminator 3 view .LVU122
 586 0028 0134     		adds	r4, r4, #1
 587              	.LVL70:
 588              	.L23:
 221:Core/Src/ssd1306_tests.c ****     ssd1306_DrawRectangle(1 + (5*delta),1 + (5*delta) ,SSD1306_WIDTH-1 - (5*delta),SSD1306_HEIGHT-1
 589              		.loc 1 221 18 is_stmt 1 discriminator 1 view .LVU123
 221:Core/Src/ssd1306_tests.c ****     ssd1306_DrawRectangle(1 + (5*delta),1 + (5*delta) ,SSD1306_WIDTH-1 - (5*delta),SSD1306_HEIGHT-1
 590              		.loc 1 221 3 is_stmt 0 discriminator 1 view .LVU124
 591 002a 042C     		cmp	r4, #4
 592 002c ECD9     		bls	.L24
 223:Core/Src/ssd1306_tests.c ****   }
 224:Core/Src/ssd1306_tests.c ****   ssd1306_UpdateScreen();
 593              		.loc 1 224 3 is_stmt 1 view .LVU125
 594 002e FFF7FEFF 		bl	ssd1306_UpdateScreen
 595              	.LVL71:
 225:Core/Src/ssd1306_tests.c ****   return;
 596              		.loc 1 225 3 view .LVU126
 226:Core/Src/ssd1306_tests.c **** }
 597              		.loc 1 226 1 is_stmt 0 view .LVU127
 598 0032 02B0     		add	sp, sp, #8
ARM GAS  /tmp/ccTXGKqk.s 			page 16


 599              	.LCFI10:
 600              		.cfi_def_cfa_offset 8
 601              		@ sp needed
 602 0034 10BD     		pop	{r4, pc}
 603              		.loc 1 226 1 view .LVU128
 604              		.cfi_endproc
 605              	.LFE72:
 607              		.section	.text.ssd1306_TestCircle,"ax",%progbits
 608              		.align	1
 609              		.global	ssd1306_TestCircle
 610              		.syntax unified
 611              		.thumb
 612              		.thumb_func
 614              	ssd1306_TestCircle:
 615              	.LFB73:
 227:Core/Src/ssd1306_tests.c **** 
 228:Core/Src/ssd1306_tests.c **** void ssd1306_TestCircle() {
 616              		.loc 1 228 27 is_stmt 1 view -0
 617              		.cfi_startproc
 618              		@ args = 0, pretend = 0, frame = 0
 619              		@ frame_needed = 0, uses_anonymous_args = 0
 620 0000 10B5     		push	{r4, lr}
 621              	.LCFI11:
 622              		.cfi_def_cfa_offset 8
 623              		.cfi_offset 4, -8
 624              		.cfi_offset 14, -4
 229:Core/Src/ssd1306_tests.c ****   uint32_t delta;
 625              		.loc 1 229 3 view .LVU130
 230:Core/Src/ssd1306_tests.c **** 
 231:Core/Src/ssd1306_tests.c ****   for(delta = 0; delta < 5; delta ++) {
 626              		.loc 1 231 3 view .LVU131
 627              	.LVL72:
 628              		.loc 1 231 13 is_stmt 0 view .LVU132
 629 0002 0024     		movs	r4, #0
 630              		.loc 1 231 3 view .LVU133
 631 0004 0BE0     		b	.L27
 632              	.LVL73:
 633              	.L28:
 232:Core/Src/ssd1306_tests.c ****     ssd1306_DrawCircle(20* delta+30, 15, 10, White);
 634              		.loc 1 232 5 is_stmt 1 discriminator 3 view .LVU134
 635 0006 04EB8403 		add	r3, r4, r4, lsl #2
 636 000a 9800     		lsls	r0, r3, #2
 637 000c 1E30     		adds	r0, r0, #30
 638 000e 0123     		movs	r3, #1
 639 0010 0A22     		movs	r2, #10
 640 0012 0F21     		movs	r1, #15
 641 0014 00F0FE00 		and	r0, r0, #254
 642 0018 FFF7FEFF 		bl	ssd1306_DrawCircle
 643              	.LVL74:
 231:Core/Src/ssd1306_tests.c ****     ssd1306_DrawCircle(20* delta+30, 15, 10, White);
 644              		.loc 1 231 29 discriminator 3 view .LVU135
 231:Core/Src/ssd1306_tests.c ****     ssd1306_DrawCircle(20* delta+30, 15, 10, White);
 645              		.loc 1 231 35 is_stmt 0 discriminator 3 view .LVU136
 646 001c 0134     		adds	r4, r4, #1
 647              	.LVL75:
 648              	.L27:
 231:Core/Src/ssd1306_tests.c ****     ssd1306_DrawCircle(20* delta+30, 15, 10, White);
ARM GAS  /tmp/ccTXGKqk.s 			page 17


 649              		.loc 1 231 18 is_stmt 1 discriminator 1 view .LVU137
 231:Core/Src/ssd1306_tests.c ****     ssd1306_DrawCircle(20* delta+30, 15, 10, White);
 650              		.loc 1 231 3 is_stmt 0 discriminator 1 view .LVU138
 651 001e 042C     		cmp	r4, #4
 652 0020 F1D9     		bls	.L28
 233:Core/Src/ssd1306_tests.c ****   }
 234:Core/Src/ssd1306_tests.c ****   ssd1306_UpdateScreen();
 653              		.loc 1 234 3 is_stmt 1 view .LVU139
 654 0022 FFF7FEFF 		bl	ssd1306_UpdateScreen
 655              	.LVL76:
 235:Core/Src/ssd1306_tests.c ****   return;
 656              		.loc 1 235 3 view .LVU140
 236:Core/Src/ssd1306_tests.c **** }
 657              		.loc 1 236 1 is_stmt 0 view .LVU141
 658 0026 10BD     		pop	{r4, pc}
 659              		.loc 1 236 1 view .LVU142
 660              		.cfi_endproc
 661              	.LFE73:
 663              		.section	.text.ssd1306_TestArc,"ax",%progbits
 664              		.align	1
 665              		.global	ssd1306_TestArc
 666              		.syntax unified
 667              		.thumb
 668              		.thumb_func
 670              	ssd1306_TestArc:
 671              	.LFB74:
 237:Core/Src/ssd1306_tests.c **** 
 238:Core/Src/ssd1306_tests.c **** void ssd1306_TestArc() {
 672              		.loc 1 238 24 is_stmt 1 view -0
 673              		.cfi_startproc
 674              		@ args = 0, pretend = 0, frame = 0
 675              		@ frame_needed = 0, uses_anonymous_args = 0
 676 0000 00B5     		push	{lr}
 677              	.LCFI12:
 678              		.cfi_def_cfa_offset 4
 679              		.cfi_offset 14, -4
 680 0002 83B0     		sub	sp, sp, #12
 681              	.LCFI13:
 682              		.cfi_def_cfa_offset 16
 239:Core/Src/ssd1306_tests.c ****   ssd1306_DrawArc(30, 30, 30, 20, 270, White);
 683              		.loc 1 239 3 view .LVU144
 684 0004 0123     		movs	r3, #1
 685 0006 0193     		str	r3, [sp, #4]
 686 0008 4FF48773 		mov	r3, #270
 687 000c 0093     		str	r3, [sp]
 688 000e 1423     		movs	r3, #20
 689 0010 1E22     		movs	r2, #30
 690 0012 1146     		mov	r1, r2
 691 0014 1046     		mov	r0, r2
 692 0016 FFF7FEFF 		bl	ssd1306_DrawArc
 693              	.LVL77:
 240:Core/Src/ssd1306_tests.c ****   ssd1306_UpdateScreen();
 694              		.loc 1 240 3 view .LVU145
 695 001a FFF7FEFF 		bl	ssd1306_UpdateScreen
 696              	.LVL78:
 241:Core/Src/ssd1306_tests.c ****   return;
 697              		.loc 1 241 3 view .LVU146
ARM GAS  /tmp/ccTXGKqk.s 			page 18


 242:Core/Src/ssd1306_tests.c **** }
 698              		.loc 1 242 1 is_stmt 0 view .LVU147
 699 001e 03B0     		add	sp, sp, #12
 700              	.LCFI14:
 701              		.cfi_def_cfa_offset 4
 702              		@ sp needed
 703 0020 5DF804FB 		ldr	pc, [sp], #4
 704              		.cfi_endproc
 705              	.LFE74:
 707              		.section	.text.ssd1306_TestPolyline,"ax",%progbits
 708              		.align	1
 709              		.global	ssd1306_TestPolyline
 710              		.syntax unified
 711              		.thumb
 712              		.thumb_func
 714              	ssd1306_TestPolyline:
 715              	.LFB75:
 243:Core/Src/ssd1306_tests.c **** 
 244:Core/Src/ssd1306_tests.c **** void ssd1306_TestPolyline() {
 716              		.loc 1 244 29 is_stmt 1 view -0
 717              		.cfi_startproc
 718              		@ args = 0, pretend = 0, frame = 16
 719              		@ frame_needed = 0, uses_anonymous_args = 0
 720 0000 00B5     		push	{lr}
 721              	.LCFI15:
 722              		.cfi_def_cfa_offset 4
 723              		.cfi_offset 14, -4
 724 0002 85B0     		sub	sp, sp, #20
 725              	.LCFI16:
 726              		.cfi_def_cfa_offset 24
 245:Core/Src/ssd1306_tests.c ****   SSD1306_VERTEX loc_vertex[] =
 727              		.loc 1 245 3 view .LVU149
 728              		.loc 1 245 18 is_stmt 0 view .LVU150
 729 0004 084B     		ldr	r3, .L34
 730 0006 EC46     		mov	ip, sp
 731 0008 0FCB     		ldm	r3, {r0, r1, r2, r3}
 732 000a ACE80700 		stmia	ip!, {r0, r1, r2}
 733 000e ACF80030 		strh	r3, [ip]	@ movhi
 246:Core/Src/ssd1306_tests.c ****   {
 247:Core/Src/ssd1306_tests.c ****       {35,40},
 248:Core/Src/ssd1306_tests.c ****       {40,20},
 249:Core/Src/ssd1306_tests.c ****       {45,28},
 250:Core/Src/ssd1306_tests.c ****       {50,10},
 251:Core/Src/ssd1306_tests.c ****       {45,16},
 252:Core/Src/ssd1306_tests.c ****       {50,10},
 253:Core/Src/ssd1306_tests.c ****       {53,16}
 254:Core/Src/ssd1306_tests.c ****   };
 255:Core/Src/ssd1306_tests.c **** 
 256:Core/Src/ssd1306_tests.c ****   ssd1306_Polyline(loc_vertex,sizeof(loc_vertex)/sizeof(loc_vertex[0]),White);
 734              		.loc 1 256 3 is_stmt 1 view .LVU151
 735 0012 0122     		movs	r2, #1
 736 0014 0721     		movs	r1, #7
 737 0016 6846     		mov	r0, sp
 738 0018 FFF7FEFF 		bl	ssd1306_Polyline
 739              	.LVL79:
 257:Core/Src/ssd1306_tests.c ****   ssd1306_UpdateScreen();
 740              		.loc 1 257 3 view .LVU152
ARM GAS  /tmp/ccTXGKqk.s 			page 19


 741 001c FFF7FEFF 		bl	ssd1306_UpdateScreen
 742              	.LVL80:
 258:Core/Src/ssd1306_tests.c ****   return;
 743              		.loc 1 258 3 view .LVU153
 259:Core/Src/ssd1306_tests.c **** }
 744              		.loc 1 259 1 is_stmt 0 view .LVU154
 745 0020 05B0     		add	sp, sp, #20
 746              	.LCFI17:
 747              		.cfi_def_cfa_offset 4
 748              		@ sp needed
 749 0022 5DF804FB 		ldr	pc, [sp], #4
 750              	.L35:
 751 0026 00BF     		.align	2
 752              	.L34:
 753 0028 00000000 		.word	.LANCHOR0
 754              		.cfi_endproc
 755              	.LFE75:
 757              		.section	.text.ssd1306_TestDrawBitmap,"ax",%progbits
 758              		.align	1
 759              		.global	ssd1306_TestDrawBitmap
 760              		.syntax unified
 761              		.thumb
 762              		.thumb_func
 764              	ssd1306_TestDrawBitmap:
 765              	.LFB76:
 260:Core/Src/ssd1306_tests.c **** 
 261:Core/Src/ssd1306_tests.c **** void ssd1306_TestDrawBitmap()
 262:Core/Src/ssd1306_tests.c **** {
 766              		.loc 1 262 1 is_stmt 1 view -0
 767              		.cfi_startproc
 768              		@ args = 0, pretend = 0, frame = 0
 769              		@ frame_needed = 0, uses_anonymous_args = 0
 770 0000 F0B5     		push	{r4, r5, r6, r7, lr}
 771              	.LCFI18:
 772              		.cfi_def_cfa_offset 20
 773              		.cfi_offset 4, -20
 774              		.cfi_offset 5, -16
 775              		.cfi_offset 6, -12
 776              		.cfi_offset 7, -8
 777              		.cfi_offset 14, -4
 778 0002 83B0     		sub	sp, sp, #12
 779              	.LCFI19:
 780              		.cfi_def_cfa_offset 32
 263:Core/Src/ssd1306_tests.c ****     ssd1306_Fill(White);
 781              		.loc 1 263 5 view .LVU156
 782 0004 0120     		movs	r0, #1
 783 0006 FFF7FEFF 		bl	ssd1306_Fill
 784              	.LVL81:
 264:Core/Src/ssd1306_tests.c ****     ssd1306_DrawBitmap(0,0,garfield_128x64,128,64,Black);
 785              		.loc 1 264 5 view .LVU157
 786 000a 0024     		movs	r4, #0
 787 000c 0194     		str	r4, [sp, #4]
 788 000e 4025     		movs	r5, #64
 789 0010 0095     		str	r5, [sp]
 790 0012 8023     		movs	r3, #128
 791 0014 164A     		ldr	r2, .L38
 792 0016 2146     		mov	r1, r4
ARM GAS  /tmp/ccTXGKqk.s 			page 20


 793 0018 2046     		mov	r0, r4
 794 001a FFF7FEFF 		bl	ssd1306_DrawBitmap
 795              	.LVL82:
 265:Core/Src/ssd1306_tests.c ****     ssd1306_UpdateScreen();
 796              		.loc 1 265 5 view .LVU158
 797 001e FFF7FEFF 		bl	ssd1306_UpdateScreen
 798              	.LVL83:
 266:Core/Src/ssd1306_tests.c ****     HAL_Delay(3000);
 799              		.loc 1 266 5 view .LVU159
 800 0022 40F6B830 		movw	r0, #3000
 801 0026 FFF7FEFF 		bl	HAL_Delay
 802              	.LVL84:
 267:Core/Src/ssd1306_tests.c ****     ssd1306_Fill(Black);
 803              		.loc 1 267 5 view .LVU160
 804 002a 2046     		mov	r0, r4
 805 002c FFF7FEFF 		bl	ssd1306_Fill
 806              	.LVL85:
 268:Core/Src/ssd1306_tests.c ****     ssd1306_DrawBitmap(32,0,github_logo_64x64,64,64,White);
 807              		.loc 1 268 5 view .LVU161
 808 0030 104E     		ldr	r6, .L38+4
 809 0032 0127     		movs	r7, #1
 810 0034 0197     		str	r7, [sp, #4]
 811 0036 0095     		str	r5, [sp]
 812 0038 2B46     		mov	r3, r5
 813 003a 3246     		mov	r2, r6
 814 003c 2146     		mov	r1, r4
 815 003e 2020     		movs	r0, #32
 816 0040 FFF7FEFF 		bl	ssd1306_DrawBitmap
 817              	.LVL86:
 269:Core/Src/ssd1306_tests.c ****     ssd1306_UpdateScreen();
 818              		.loc 1 269 5 view .LVU162
 819 0044 FFF7FEFF 		bl	ssd1306_UpdateScreen
 820              	.LVL87:
 270:Core/Src/ssd1306_tests.c ****     HAL_Delay(3000);
 821              		.loc 1 270 5 view .LVU163
 822 0048 40F6B830 		movw	r0, #3000
 823 004c FFF7FEFF 		bl	HAL_Delay
 824              	.LVL88:
 271:Core/Src/ssd1306_tests.c ****     ssd1306_Fill(White);
 825              		.loc 1 271 5 view .LVU164
 826 0050 3846     		mov	r0, r7
 827 0052 FFF7FEFF 		bl	ssd1306_Fill
 828              	.LVL89:
 272:Core/Src/ssd1306_tests.c ****     ssd1306_DrawBitmap(32,0,github_logo_64x64,64,64,Black);
 829              		.loc 1 272 5 view .LVU165
 830 0056 0194     		str	r4, [sp, #4]
 831 0058 0095     		str	r5, [sp]
 832 005a 2B46     		mov	r3, r5
 833 005c 3246     		mov	r2, r6
 834 005e 2146     		mov	r1, r4
 835 0060 2020     		movs	r0, #32
 836 0062 FFF7FEFF 		bl	ssd1306_DrawBitmap
 837              	.LVL90:
 273:Core/Src/ssd1306_tests.c ****     ssd1306_UpdateScreen();
 838              		.loc 1 273 5 view .LVU166
 839 0066 FFF7FEFF 		bl	ssd1306_UpdateScreen
 840              	.LVL91:
ARM GAS  /tmp/ccTXGKqk.s 			page 21


 274:Core/Src/ssd1306_tests.c **** }
 841              		.loc 1 274 1 is_stmt 0 view .LVU167
 842 006a 03B0     		add	sp, sp, #12
 843              	.LCFI20:
 844              		.cfi_def_cfa_offset 20
 845              		@ sp needed
 846 006c F0BD     		pop	{r4, r5, r6, r7, pc}
 847              	.L39:
 848 006e 00BF     		.align	2
 849              	.L38:
 850 0070 00000000 		.word	.LANCHOR1
 851 0074 00000000 		.word	.LANCHOR2
 852              		.cfi_endproc
 853              	.LFE76:
 855              		.section	.text.ssd1306_TestAll,"ax",%progbits
 856              		.align	1
 857              		.global	ssd1306_TestAll
 858              		.syntax unified
 859              		.thumb
 860              		.thumb_func
 862              	ssd1306_TestAll:
 863              	.LFB77:
 275:Core/Src/ssd1306_tests.c **** 
 276:Core/Src/ssd1306_tests.c **** void ssd1306_TestAll() {
 864              		.loc 1 276 24 is_stmt 1 view -0
 865              		.cfi_startproc
 866              		@ args = 0, pretend = 0, frame = 0
 867              		@ frame_needed = 0, uses_anonymous_args = 0
 868 0000 08B5     		push	{r3, lr}
 869              	.LCFI21:
 870              		.cfi_def_cfa_offset 8
 871              		.cfi_offset 3, -8
 872              		.cfi_offset 14, -4
 277:Core/Src/ssd1306_tests.c ****     ssd1306_Init();
 873              		.loc 1 277 5 view .LVU169
 874 0002 FFF7FEFF 		bl	ssd1306_Init
 875              	.LVL92:
 278:Core/Src/ssd1306_tests.c ****     ssd1306_TestFPS();
 876              		.loc 1 278 5 view .LVU170
 877 0006 FFF7FEFF 		bl	ssd1306_TestFPS
 878              	.LVL93:
 279:Core/Src/ssd1306_tests.c ****     HAL_Delay(3000);
 879              		.loc 1 279 5 view .LVU171
 880 000a 40F6B830 		movw	r0, #3000
 881 000e FFF7FEFF 		bl	HAL_Delay
 882              	.LVL94:
 280:Core/Src/ssd1306_tests.c ****     ssd1306_TestBorder();
 883              		.loc 1 280 5 view .LVU172
 884 0012 FFF7FEFF 		bl	ssd1306_TestBorder
 885              	.LVL95:
 281:Core/Src/ssd1306_tests.c ****     ssd1306_TestFonts();
 886              		.loc 1 281 5 view .LVU173
 887 0016 FFF7FEFF 		bl	ssd1306_TestFonts
 888              	.LVL96:
 282:Core/Src/ssd1306_tests.c ****     HAL_Delay(3000);
 889              		.loc 1 282 5 view .LVU174
 890 001a 40F6B830 		movw	r0, #3000
ARM GAS  /tmp/ccTXGKqk.s 			page 22


 891 001e FFF7FEFF 		bl	HAL_Delay
 892              	.LVL97:
 283:Core/Src/ssd1306_tests.c ****     ssd1306_Fill(Black);
 893              		.loc 1 283 5 view .LVU175
 894 0022 0020     		movs	r0, #0
 895 0024 FFF7FEFF 		bl	ssd1306_Fill
 896              	.LVL98:
 284:Core/Src/ssd1306_tests.c ****     ssd1306_TestRectangle();
 897              		.loc 1 284 5 view .LVU176
 898 0028 FFF7FEFF 		bl	ssd1306_TestRectangle
 899              	.LVL99:
 285:Core/Src/ssd1306_tests.c ****     ssd1306_TestLine();
 900              		.loc 1 285 5 view .LVU177
 901 002c FFF7FEFF 		bl	ssd1306_TestLine
 902              	.LVL100:
 286:Core/Src/ssd1306_tests.c ****     HAL_Delay(3000);
 903              		.loc 1 286 5 view .LVU178
 904 0030 40F6B830 		movw	r0, #3000
 905 0034 FFF7FEFF 		bl	HAL_Delay
 906              	.LVL101:
 287:Core/Src/ssd1306_tests.c ****     ssd1306_Fill(Black);
 907              		.loc 1 287 5 view .LVU179
 908 0038 0020     		movs	r0, #0
 909 003a FFF7FEFF 		bl	ssd1306_Fill
 910              	.LVL102:
 288:Core/Src/ssd1306_tests.c ****     ssd1306_TestPolyline();
 911              		.loc 1 288 5 view .LVU180
 912 003e FFF7FEFF 		bl	ssd1306_TestPolyline
 913              	.LVL103:
 289:Core/Src/ssd1306_tests.c ****     HAL_Delay(3000);
 914              		.loc 1 289 5 view .LVU181
 915 0042 40F6B830 		movw	r0, #3000
 916 0046 FFF7FEFF 		bl	HAL_Delay
 917              	.LVL104:
 290:Core/Src/ssd1306_tests.c ****     ssd1306_Fill(Black);
 918              		.loc 1 290 5 view .LVU182
 919 004a 0020     		movs	r0, #0
 920 004c FFF7FEFF 		bl	ssd1306_Fill
 921              	.LVL105:
 291:Core/Src/ssd1306_tests.c ****     ssd1306_TestArc();
 922              		.loc 1 291 5 view .LVU183
 923 0050 FFF7FEFF 		bl	ssd1306_TestArc
 924              	.LVL106:
 292:Core/Src/ssd1306_tests.c ****     HAL_Delay(3000);
 925              		.loc 1 292 5 view .LVU184
 926 0054 40F6B830 		movw	r0, #3000
 927 0058 FFF7FEFF 		bl	HAL_Delay
 928              	.LVL107:
 293:Core/Src/ssd1306_tests.c ****     ssd1306_Fill(Black);
 929              		.loc 1 293 5 view .LVU185
 930 005c 0020     		movs	r0, #0
 931 005e FFF7FEFF 		bl	ssd1306_Fill
 932              	.LVL108:
 294:Core/Src/ssd1306_tests.c ****     ssd1306_TestCircle();
 933              		.loc 1 294 5 view .LVU186
 934 0062 FFF7FEFF 		bl	ssd1306_TestCircle
 935              	.LVL109:
ARM GAS  /tmp/ccTXGKqk.s 			page 23


 295:Core/Src/ssd1306_tests.c ****     HAL_Delay(3000);
 936              		.loc 1 295 5 view .LVU187
 937 0066 40F6B830 		movw	r0, #3000
 938 006a FFF7FEFF 		bl	HAL_Delay
 939              	.LVL110:
 296:Core/Src/ssd1306_tests.c ****     ssd1306_TestDrawBitmap();
 940              		.loc 1 296 5 view .LVU188
 941 006e FFF7FEFF 		bl	ssd1306_TestDrawBitmap
 942              	.LVL111:
 297:Core/Src/ssd1306_tests.c ****     HAL_Delay(3000);
 943              		.loc 1 297 5 view .LVU189
 944 0072 40F6B830 		movw	r0, #3000
 945 0076 FFF7FEFF 		bl	HAL_Delay
 946              	.LVL112:
 298:Core/Src/ssd1306_tests.c **** }
 947              		.loc 1 298 1 is_stmt 0 view .LVU190
 948 007a 08BD     		pop	{r3, pc}
 949              		.cfi_endproc
 950              	.LFE77:
 952              		.global	github_logo_64x64
 953              		.global	garfield_128x64
 954              		.section	.rodata
 955              		.align	2
 956              		.set	.LANCHOR0,. + 0
 957              	.LC0:
 958 0000 23       		.byte	35
 959 0001 28       		.byte	40
 960 0002 28       		.byte	40
 961 0003 14       		.byte	20
 962 0004 2D       		.byte	45
 963 0005 1C       		.byte	28
 964 0006 32       		.byte	50
 965 0007 0A       		.byte	10
 966 0008 2D       		.byte	45
 967 0009 10       		.byte	16
 968 000a 32       		.byte	50
 969 000b 0A       		.byte	10
 970 000c 35       		.byte	53
 971 000d 10       		.byte	16
 972              		.section	.rodata.garfield_128x64,"a"
 973              		.align	2
 974              		.set	.LANCHOR1,. + 0
 977              	garfield_128x64:
 978 0000 00000000 		.ascii	"\000\000\000\000\000\000\000\000\000\000\000\000\000"
 978      00000000 
 978      00000000 
 978      00
 979 000d 00000000 		.ascii	"\000\000\000\000\000\000\000\000\007\377\000\000\000"
 979      00000000 
 979      07FF0000 
 979      00
 980 001a 00000000 		.ascii	"\000\000\000\000\000\000\000\000\000\000\000\037\377"
 980      00000000 
 980      0000001F 
 980      FF
 981 0027 F87FE000 		.ascii	"\370\177\340\000\000\000\000\000\000\000\000\000\000"
 981      00000000 
ARM GAS  /tmp/ccTXGKqk.s 			page 24


 981      00000000 
 981      00
 982 0034 003FFFCF 		.ascii	"\000?\377\317\377\376\000\000\000\000\000\000\000\000"
 982      FFFE0000 
 982      00000000 
 982      0000
 983 0042 0000003F 		.ascii	"\000\000\000?\373\343\377\363\200\000\000\000\000\000"
 983      FBE3FFF3 
 983      80000000 
 983      0000
 984 0050 00000000 		.ascii	"\000\000\000\000\000?\300\363\377\370\340\000\000\000"
 984      003FC0F3 
 984      FFF8E000 
 984      0000
 985 005e 00000000 		.ascii	"\000\000\000\000\000\000\000\037\000\037\331\3748\000"
 985      0000001F 
 985      001FD9FC 
 985      3800
 986 006c 00000000 		.ascii	"\000\000\000\000\000\000\000\000\000\015\000\017\000"
 986      00000000 
 986      000D000F 
 986      00
 987 0079 1E0C0000 		.ascii	"\036\014\000\000\000\000\000\000\000\000\000\014\014"
 987      00000000 
 987      0000000C 
 987      0C
 988 0086 0E1FF803 		.ascii	"\016\037\370\003\004\000\000\000\000\000\000\000\000"
 988      04000000 
 988      00000000 
 988      00
 989 0093 000387F0 		.ascii	"\000\003\207\360\007\000\001\206\000\000\000\000\000"
 989      07000186 
 989      00000000 
 989      00
 990 00a0 00000000 		.ascii	"\000\000\000\000\030;\200\030\0000\303\000\000\000\000"
 990      183B8018 
 990      0030C300 
 990      000000
 991 00af 00000000 		.ascii	"\000\000\000\000\000\000\376\000`\000\030\303\001\300"
 991      0000FE00 
 991      600018C3 
 991      01C0
 992 00bd 00000000 		.ascii	"\000\000\000\000\000\000\000?\374\001\200\000\017\303"
 992      0000003F 
 992      FC018000 
 992      0FC3
 993 00cb 8FC00000 		.ascii	"\217\300\000\000\000\000\000\000\000\007\360\003\000"
 993      00000000 
 993      0007F003 
 993      00
 994 00d8 000C07F0 		.ascii	"\000\014\007\360\000\000\000\000\000\000\000\000\017"
 994      00000000 
 994      00000000 
 994      0F
 995 00e5 E00C0000 		.ascii	"\340\014\000\000\014\007\377\370\000\000\000\000\000"
 995      0C07FFF8 
 995      00000000 
ARM GAS  /tmp/ccTXGKqk.s 			page 25


 995      00
 996 00f2 000038C0 		.ascii	"\000\0008\300\030\000\000\010\017\377\360\000\000\000"
 996      18000008 
 996      0FFFF000 
 996      0000
 997 0100 00000000 		.ascii	"\000\000\000\000q\2000\000\000\010\017\374\374\000\000"
 997      71803000 
 997      00080FFC 
 997      FC0000
 998 010f 00000000 		.ascii	"\000\000\000\000\000\367\000`\000\000\030?\376\000\000"
 998      00F70060 
 998      0000183F 
 998      FE0000
 999 011e 00000000 		.ascii	"\000\000\000\000\000\001\377\000`\000\000\030\177\376"
 999      0001FF00 
 999      60000018 
 999      7FFE
 1000 012c 00000000 		.ascii	"\000\000\000\000\000\000\000\003\377\000\300\000\000"
 1000      00000003 
 1000      FF00C000 
 1000      00
 1001 0139 30FF1F00 		.ascii	"0\377\037\000\000\000\000\000\000\000\003\203\340\300"
 1001      00000000 
 1001      00000383 
 1001      E0C0
 1002 0147 00006000 		.ascii	"\000\000`\000\003\000\000\000\000\000\000\000\007\003"
 1002      03000000 
 1002      00000000 
 1002      0703
 1003 0155 1FFFFFFF 		.ascii	"\037\377\377\377\300\000\003\200\000\000\000\000\000"
 1003      C0000380 
 1003      00000000 
 1003      00
 1004 0162 000E0100 		.ascii	"\000\016\001\000\347\300\003\200\000\017\200\000\000"
 1004      E7C00380 
 1004      000F8000 
 1004      00
 1005 016f 00000000 		.ascii	"\000\000\000\000\017\001\200\340\000\006\000\000\377"
 1005      0F0180E0 
 1005      00060000 
 1005      FF
 1006 017c 80000000 		.ascii	"\200\000\000\000\000\000\000\017\203\177\360\0008\000"
 1006      0000000F 
 1006      837FF000 
 1006      3800
 1007 018a 26FF8000 		.ascii	"&\377\200\000\000\000\000\000\000\017\334\030\037\207"
 1007      00000000 
 1007      000FDC18 
 1007      1F87
 1008 0198 E00026EF 		.ascii	"\340\000&\357\200\000\000\000\000\000\000\017\270\016"
 1008      80000000 
 1008      0000000F 
 1008      B80E
 1009 01a6 18003000 		.ascii	"\030\0000\000\004\317\200\000\000\000\000\000\000\017"
 1009      04CF8000 
 1009      00000000 
 1009      000F
ARM GAS  /tmp/ccTXGKqk.s 			page 26


 1010 01b4 300FC000 		.ascii	"0\017\300\000\030\000\000\217\200\000\000\000\000\000"
 1010      1800008F 
 1010      80000000 
 1010      0000
 1011 01c2 00073038 		.ascii	"\000\00708p\000\030\000\000\017\000\000\000\000\000"
 1011      70001800 
 1011      000F0000 
 1011      000000
 1012 01d1 00000718 		.ascii	"\000\000\007\030\000\037\000\030;\200\016\000\000\000"
 1012      001F0018 
 1012      3B800E00 
 1012      0000
 1013 01df 00000000 		.ascii	"\000\000\000\000\003\216\000\003\200p\037\370\034\000"
 1013      038E0003 
 1013      80701FF8 
 1013      1C00
 1014 01ed 00000000 		.ascii	"\000\000\000\000\000\000\001\377\200\000\003\340\037"
 1014      000001FF 
 1014      800003E0 
 1014      1F
 1015 01fa FFF80000 		.ascii	"\377\370\000\000\000\000\000\000\000\000\177\206\000"
 1015      00000000 
 1015      00007F86 
 1015      00
 1016 0207 3F1F07FF 		.ascii	"?\037\007\377\340\000\000\000\000\000\000\000\000\017"
 1016      E0000000 
 1016      00000000 
 1016      000F
 1017 0215 C300003F 		.ascii	"\303\000\000?\001\377\200\000\000\000\000\000\000\000"
 1017      01FF8000 
 1017      00000000 
 1017      0000
 1018 0223 0001FF80 		.ascii	"\000\001\377\200\000?\307\374\000\000\000\000\000\000"
 1018      003FC7FC 
 1018      00000000 
 1018      0000
 1019 0231 00000000 		.ascii	"\000\000\000\000s\340\007\377\377\370\000\000\000\000"
 1019      73E007FF 
 1019      FFF80000 
 1019      0000
 1020 023f 00000000 		.ascii	"\000\000\000\000\000\000\300\000\007\300?\370\000\000"
 1020      0000C000 
 1020      07C03FF8 
 1020      0000
 1021 024d 00000000 		.ascii	"\000\000\000\000\000\000\000\003\000\000\000\000?\370"
 1021      00000003 
 1021      00000000 
 1021      3FF8
 1022 025b 00000000 		.ascii	"\000\000\000\000\000\000\000\000\000\016\000\000\000"
 1022      00000000 
 1022      000E0000 
 1022      00
 1023 0268 003EF800 		.ascii	"\000>\370\000\000\000\000\000\000\000\000\000\030\000"
 1023      00000000 
 1023      00000000 
 1023      1800
 1024 0276 000000A4 		.ascii	"\000\000\000\244\360\000\000\000\000\000\000\000\000"
ARM GAS  /tmp/ccTXGKqk.s 			page 27


 1024      F0000000 
 1024      00000000 
 1024      00
 1025 0283 00700000 		.ascii	"\000p\000\000\026\001\300x\000\000\000\000\000\000\000"
 1025      1601C078 
 1025      00000000 
 1025      000000
 1026 0292 0000E000 		.ascii	"\000\000\340\000\000\036\001\300>\000\000\000\000\000"
 1026      001E01C0 
 1026      3E000000 
 1026      0000
 1027 02a0 00000001 		.ascii	"\000\000\000\001\300\000\000\014\001\200?\000\000\000"
 1027      C000000C 
 1027      01803F00 
 1027      0000
 1028 02ae 00000000 		.ascii	"\000\000\000\000\000\003\200\000\000\004\001\363\377"
 1028      00038000 
 1028      000401F3 
 1028      FF
 1029 02bb C0000000 		.ascii	"\300\000\000\000\000\000\000\000\007\000\000\000\014"
 1029      00000000 
 1029      07000000 
 1029      0C
 1030 02c8 01EFF7E0 		.ascii	"\001\357\367\340\000\000\000\000\000\000\000\016\000"
 1030      00000000 
 1030      0000000E 
 1030      00
 1031 02d5 00001800 		.ascii	"\000\000\030\000\007\360`\000\000\000\000\000\000\000"
 1031      07F06000 
 1031      00000000 
 1031      0000
 1032 02e3 0C000000 		.ascii	"\014\000\000\000\030\000\007\200p\000\000\000\000\000"
 1032      18000780 
 1032      70000000 
 1032      0000
 1033 02f1 00001800 		.ascii	"\000\000\030\000\000\0000\000\006\004\360\000\000\000"
 1033      00003000 
 1033      0604F000 
 1033      0000
 1034 02ff 00000000 		.ascii	"\000\000\000\0008\000\000\000`\000\014\034\360\000\000"
 1034      38000000 
 1034      60000C1C 
 1034      F00000
 1035 030e 00000000 		.ascii	"\000\000\000\000\0000\000\000\000\300\000\037\377\360"
 1035      00300000 
 1035      00C0001F 
 1035      FFF0
 1036 031c 00000000 		.ascii	"\000\000\000\000\000\000\0000\000\000\001\200\000\001"
 1036      00000030 
 1036      00000180 
 1036      0001
 1037 032a FDF00000 		.ascii	"\375\360\000\000\000\000\000\000\0000\000\000\003\000"
 1037      00000000 
 1037      00300000 
 1037      0300
 1038 0338 0000FDF0 		.ascii	"\000\000\375\360\000\000\000\000\000\000\0000\000\000"
 1038      00000000 
ARM GAS  /tmp/ccTXGKqk.s 			page 28


 1038      00000030 
 1038      0000
 1039 0346 07000001 		.ascii	"\007\000\000\001\301\340\000\000\000\000\000\000\000"
 1039      C1E00000 
 1039      00000000 
 1039      00
 1040 0353 18000007 		.ascii	"\030\000\000\007\000\000\003\201\340\000\000\000\000"
 1040      00000381 
 1040      E0000000 
 1040      00
 1041 0360 0000000C 		.ascii	"\000\000\000\014\000\000\007\000\000\007\377\300\000"
 1041      00000700 
 1041      0007FFC0 
 1041      00
 1042 036d 00000000 		.ascii	"\000\000\000\000\000\000\006\000\000\003\300\0009\377"
 1042      00000600 
 1042      0003C000 
 1042      39FF
 1043 037b 80000000 		.ascii	"\200\000\000\000\000\000\000\000\003\200\000\001\360"
 1043      00000000 
 1043      03800001 
 1043      F0
 1044 0388 01E3FF00 		.ascii	"\001\343\377\000\000\000\000\000\000\000\000\000\340"
 1044      00000000 
 1044      00000000 
 1044      E0
 1045 0395 00001F03 		.ascii	"\000\000\037\003\215\376\000\000\000\000\000\000\000"
 1045      8DFE0000 
 1045      00000000 
 1045      00
 1046 03a2 00001E00 		.ascii	"\000\000\036\000\000\003\374=\376\000\000\000\000\000"
 1046      0003FC3D 
 1046      FE000000 
 1046      0000
 1047 03b0 00000000 		.ascii	"\000\000\000\000\001\370\000\003\300?\376\000\000\000"
 1047      01F80003 
 1047      C03FFE00 
 1047      0000
 1048 03be 00000000 		.ascii	"\000\000\000\000\000\000\000\007\377\377\300?\376\000"
 1048      00000007 
 1048      FFFFC03F 
 1048      FE00
 1049 03cc 00000000 		.ascii	"\000\000\000\000\000\000\000\000\000\003\377\361\300"
 1049      00000000 
 1049      0003FFF1 
 1049      C0
 1050 03d9 3FFE0000 		.ascii	"?\376\000\000\000\000\000\000\000\000\000\000\003\377"
 1050      00000000 
 1050      00000000 
 1050      03FF
 1051 03e7 E0C03FFE 		.ascii	"\340\300?\376\000\000\000\000\000\000\000\000\000\000"
 1051      00000000 
 1051      00000000 
 1051      0000
 1052 03f5 03FFE0C0 		.ascii	"\003\377\340\300?\236\000\000\000\000\000"
 1052      3F9E0000 
 1052      000000
ARM GAS  /tmp/ccTXGKqk.s 			page 29


 1053              		.section	.rodata.github_logo_64x64,"a"
 1054              		.align	2
 1055              		.set	.LANCHOR2,. + 0
 1058              	github_logo_64x64:
 1059 0000 0000001F 		.ascii	"\000\000\000\037\370\000\000\000\000\000\003\377\377"
 1059      F8000000 
 1059      000003FF 
 1059      FF
 1060 000d 80000000 		.ascii	"\200\000\000\000\000\017\377\377\360\000\000\000\000"
 1060      000FFFFF 
 1060      F0000000 
 1060      00
 1061 001a 3FFFFFFC 		.ascii	"?\377\377\374\000\000\000\000\377\377\377\377\000\000"
 1061      00000000 
 1061      FFFFFFFF 
 1061      0000
 1062 0028 0003FFFF 		.ascii	"\000\003\377\377\377\377\300\000\000\007\377\377\377"
 1062      FFFFC000 
 1062      0007FFFF 
 1062      FF
 1063 0035 FFE00000 		.ascii	"\377\340\000\000\017\377\377\377\377\360\000\000?\377"
 1063      0FFFFFFF 
 1063      FFF00000 
 1063      3FFF
 1064 0043 FFFFFFFC 		.ascii	"\377\377\377\374\000\000\177\377\377\377\377\376\000"
 1064      00007FFF 
 1064      FFFFFFFE 
 1064      00
 1065 0050 00FFFFFF 		.ascii	"\000\377\377\377\377\377\377\000\000\377\377\377\377"
 1065      FFFFFF00 
 1065      00FFFFFF 
 1065      FF
 1066 005d FFFF0001 		.ascii	"\377\377\000\001\377\377\377\377\377\377\200\003\376"
 1066      FFFFFFFF 
 1066      FFFF8003 
 1066      FE
 1067 006a 3FFFFFFC 		.ascii	"?\377\377\374\177\300\007\376\007\377\377\340\177\340"
 1067      7FC007FE 
 1067      07FFFFE0 
 1067      7FE0
 1068 0078 07FE01F8 		.ascii	"\007\376\001\370\037\300?\340\017\374\000\000\000\000"
 1068      1FC03FE0 
 1068      0FFC0000 
 1068      0000
 1069 0086 3FF00FFC 		.ascii	"?\360\017\374\000\000\000\000?\360\037\374\000\000\000"
 1069      00000000 
 1069      3FF01FFC 
 1069      000000
 1070 0095 003FF81F 		.ascii	"\000?\370\037\374\000\000\000\000?\370?\376\000\000"
 1070      FC000000 
 1070      003FF83F 
 1070      FE0000
 1071 00a4 00003FFC 		.ascii	"\000\000?\374?\376\000\000\000\000\177\374\177\374\000"
 1071      3FFE0000 
 1071      00007FFC 
 1071      7FFC00
 1072 00b3 0000003F 		.ascii	"\000\000\000?\374\177\374\000\000\000\000\037\376\177"
ARM GAS  /tmp/ccTXGKqk.s 			page 30


 1072      FC7FFC00 
 1072      0000001F 
 1072      FE7F
 1073 00c1 F8000000 		.ascii	"\370\000\000\000\000\037\376\177\370\000\000\000\000"
 1073      001FFE7F 
 1073      F8000000 
 1073      00
 1074 00ce 0FFE7FF0 		.ascii	"\017\376\177\360\000\000\000\000\017\376\377\360\000"
 1074      00000000 
 1074      0FFEFFF0 
 1074      00
 1075 00db 0000000F 		.ascii	"\000\000\000\017\377\377\360\000\000\000\000\017\377"
 1075      FFFFF000 
 1075      0000000F 
 1075      FF
 1076 00e8 FFF00000 		.ascii	"\377\360\000\000\000\000\007\377\377\360\000\000\000"
 1076      000007FF 
 1076      FFF00000 
 1076      00
 1077 00f5 0007FFFF 		.ascii	"\000\007\377\377\360\000\000\000\000\007\377\377\360"
 1077      F0000000 
 1077      0007FFFF 
 1077      F0
 1078 0102 00000000 		.ascii	"\000\000\000\000\017\377\377\360\000\000\000\000\017"
 1078      0FFFFFF0 
 1078      00000000 
 1078      0F
 1079 010f FFFFF000 		.ascii	"\377\377\360\000\000\000\000\017\377\377\360\000\000"
 1079      0000000F 
 1079      FFFFF000 
 1079      00
 1080 011c 00000FFF 		.ascii	"\000\000\017\377\377\360\000\000\000\000\017\377\177"
 1080      FFF00000 
 1080      00000FFF 
 1080      7F
 1081 0129 F8000000 		.ascii	"\370\000\000\000\000\037\376\177\370\000\000\000\000"
 1081      001FFE7F 
 1081      F8000000 
 1081      00
 1082 0136 1FFE7FFC 		.ascii	"\037\376\177\374\000\000\000\000?\376\177\374\000\000"
 1082      00000000 
 1082      3FFE7FFC 
 1082      0000
 1083 0144 00003FFE 		.ascii	"\000\000?\376\177\376\000\000\000\000\177\374?\377\000"
 1083      7FFE0000 
 1083      00007FFC 
 1083      3FFF00
 1084 0153 000000FF 		.ascii	"\000\000\000\377\374?\377\300\000\000\001\377\374\037"
 1084      FC3FFFC0 
 1084      000001FF 
 1084      FC1F
 1085 0161 9FE00000 		.ascii	"\237\340\000\000\007\377\370\037\207\374\000\000?\377"
 1085      07FFF81F 
 1085      87FC0000 
 1085      3FFF
 1086 016f F80FC3FF 		.ascii	"\370\017\303\377\300\001\377\377\360\017\341\377\200"
 1086      C001FFFF 
ARM GAS  /tmp/ccTXGKqk.s 			page 31


 1086      F00FE1FF 
 1086      80
 1087 017c 01FFFFF0 		.ascii	"\001\377\377\360\007\361\377\200\000\377\377\340\007"
 1087      07F1FF80 
 1087      00FFFFE0 
 1087      07
 1088 0189 F0FF0000 		.ascii	"\360\377\000\000\377\377\340\003\370?\000\000\377\377"
 1088      FFFFE003 
 1088      F83F0000 
 1088      FFFF
 1089 0197 C001F800 		.ascii	"\300\001\370\000\000\000\377\377\200\000\374\000\000"
 1089      0000FFFF 
 1089      8000FC00 
 1089      00
 1090 01a4 00FFFF00 		.ascii	"\000\377\377\000\000\376\000\000\000\377\377\000\000"
 1090      00FE0000 
 1090      00FFFF00 
 1090      00
 1091 01b1 7F000000 		.ascii	"\177\000\000\000\377\376\000\000?\377\000\000\377\374"
 1091      FFFE0000 
 1091      3FFF0000 
 1091      FFFC
 1092 01bf 00000FFF 		.ascii	"\000\000\017\377\000\000\377\360\000\000\007\377\000"
 1092      0000FFF0 
 1092      000007FF 
 1092      00
 1093 01cc 00FFE000 		.ascii	"\000\377\340\000\000\003\377\000\000\377\300\000\000"
 1093      0003FF00 
 1093      00FFC000 
 1093      00
 1094 01d9 00FF0000 		.ascii	"\000\377\000\000\377\000\000\000\000?\000\000\374\000"
 1094      FF000000 
 1094      003F0000 
 1094      FC00
 1095 01e7 0000000F 		.ascii	"\000\000\000\017\000\000\360\000\000\000\000\000\000"
 1095      0000F000 
 1095      00000000 
 1095      00
 1096 01f4 00000000 		.ascii	"\000\000\000\000\000\000\000\000\000\000\000\000"
 1096      00000000 
 1096      00000000 
 1097              		.text
 1098              	.Letext0:
 1099              		.file 2 "/home/seradya/toolchains/gcc-arm-none-eabi-10.3-2021.10/arm-none-eabi/include/machine/_de
 1100              		.file 3 "/home/seradya/toolchains/gcc-arm-none-eabi-10.3-2021.10/arm-none-eabi/include/sys/_stdint
 1101              		.file 4 "Core/Inc/ssd1306_fonts.h"
 1102              		.file 5 "Core/Inc/ssd1306.h"
 1103              		.file 6 "Drivers/STM32F1xx_HAL_Driver/Inc/stm32f1xx_hal.h"
 1104              		.file 7 "/home/seradya/toolchains/gcc-arm-none-eabi-10.3-2021.10/arm-none-eabi/include/string.h"
 1105              		.file 8 "/home/seradya/toolchains/gcc-arm-none-eabi-10.3-2021.10/arm-none-eabi/include/stdio.h"
ARM GAS  /tmp/ccTXGKqk.s 			page 32

